(lp0
(lp1
(dp2
Vsource
p3
V*UNKNOWN*
p4
sVtree
p5
(dp6
Vchildren
p7
(lp8
(dp9
Vchildren
p10
(lp11
(dp12
Vcategory
p13
Vpersonality
p14
sVpercentage
p15
F0.9721849887837615
sVchildren
p16
(lp17
(dp18
Vcategory
p19
Vpersonality
p20
sVname
p21
VOpenness
p22
sVsampling_error
p23
F0.05129845836
sVid
p24
VOpenness
p25
sVpercentage
p26
F0.07224308881951469
sVchildren
p27
(lp28
(dp29
Vcategory
p30
Vpersonality
p31
sVpercentage
p32
F0.11770412244611662
sVid
p33
VAdventurousness
p34
sVsampling_error
p35
F0.04522576988
sVname
p36
VAdventurousness
p37
sa(dp38
Vcategory
p39
Vpersonality
p40
sVpercentage
p41
F0.02116442169831901
sVid
p42
VArtistic interests
p43
sVsampling_error
p44
F0.09306734536000001
sVname
p45
VArtistic interests
p46
sa(dp47
Vcategory
p48
Vpersonality
p49
sVpercentage
p50
F0.8393343183476615
sVid
p51
VEmotionality
p52
sVsampling_error
p53
F0.04331930968
sVname
p54
VEmotionality
p55
sa(dp56
Vcategory
p57
Vpersonality
p58
sVpercentage
p59
F0.009979113528573386
sVid
p60
VImagination
p61
sVsampling_error
p62
F0.0562715146
sVname
p63
VImagination
p64
sa(dp65
Vcategory
p66
Vpersonality
p67
sVpercentage
p68
F0.1001646022538988
sVid
p69
VIntellect
p70
sVsampling_error
p71
F0.04899994008
sVname
p72
VIntellect
p73
sa(dp74
Vcategory
p75
Vpersonality
p76
sVpercentage
p77
F0.08956026130254985
sVid
p78
VLiberalism
p79
sVsampling_error
p80
F0.07465495548
sVname
p81
VAuthority-challenging
p82
sasa(dp83
Vcategory
p84
Vpersonality
p85
sVname
p86
VConscientiousness
p87
sVsampling_error
p88
F0.06709838408
sVid
p89
VConscientiousness
p90
sVpercentage
p91
F0.03367039391440068
sVchildren
p92
(lp93
(dp94
Vcategory
p95
Vpersonality
p96
sVpercentage
p97
F0.03434994664023941
sVid
p98
VAchievement striving
p99
sVsampling_error
p100
F0.08811342232
sVname
p101
VAchievement striving
p102
sa(dp103
Vcategory
p104
Vpersonality
p105
sVpercentage
p106
F0.13199145606672147
sVid
p107
VCautiousness
p108
sVsampling_error
p109
F0.08211340468
sVname
p110
VCautiousness
p111
sa(dp112
Vcategory
p113
Vpersonality
p114
sVpercentage
p115
F0.18976167595715696
sVid
p116
VDutifulness
p117
sVsampling_error
p118
F0.05342285088
sVname
p119
VDutifulness
p120
sa(dp121
Vcategory
p122
Vpersonality
p123
sVpercentage
p124
F0.8996905937208689
sVid
p125
VOrderliness
p126
sVsampling_error
p127
F0.06205278728
sVname
p128
VOrderliness
p129
sa(dp130
Vcategory
p131
Vpersonality
p132
sVpercentage
p133
F0.027250650834563357
sVid
p134
VSelf-discipline
p135
sVsampling_error
p136
F0.04289546392
sVname
p137
VSelf-discipline
p138
sa(dp139
Vcategory
p140
Vpersonality
p141
sVpercentage
p142
F0.24696495989678358
sVid
p143
VSelf-efficacy
p144
sVsampling_error
p145
F0.08211012872000001
sVname
p146
VSelf-efficacy
p147
sasa(dp148
Vcategory
p149
Vpersonality
p150
sVname
p151
VExtraversion
p152
sVsampling_error
p153
F0.04920285252
sVid
p154
VExtraversion
p155
sVpercentage
p156
F0.8851879510743218
sVchildren
p157
(lp158
(dp159
Vcategory
p160
Vpersonality
p161
sVpercentage
p162
F0.3863056858954215
sVid
p163
VActivity level
p164
sVsampling_error
p165
F0.06849524376
sVname
p166
VActivity level
p167
sa(dp168
Vcategory
p169
Vpersonality
p170
sVpercentage
p171
F0.96538508780128
sVid
p172
VAssertiveness
p173
sVsampling_error
p174
F0.0732049864
sVname
p175
VAssertiveness
p176
sa(dp177
Vcategory
p178
Vpersonality
p179
sVpercentage
p180
F0.8225412792495027
sVid
p181
VCheerfulness
p182
sVsampling_error
p183
F0.09135170531999999
sVname
p184
VCheerfulness
p185
sa(dp186
Vcategory
p187
Vpersonality
p188
sVpercentage
p189
F0.6029188655637098
sVid
p190
VExcitement-seeking
p191
sVsampling_error
p192
F0.07596789311999999
sVname
p193
VExcitement-seeking
p194
sa(dp195
Vcategory
p196
Vpersonality
p197
sVpercentage
p198
F0.8820476299355541
sVid
p199
VFriendliness
p200
sVsampling_error
p201
F0.06712513496
sVname
p202
VOutgoing
p203
sa(dp204
Vcategory
p205
Vpersonality
p206
sVpercentage
p207
F0.8139056500997277
sVid
p208
VGregariousness
p209
sVsampling_error
p210
F0.05283933808
sVname
p211
VGregariousness
p212
sasa(dp213
Vcategory
p214
Vpersonality
p215
sVname
p216
VAgreeableness
p217
sVsampling_error
p218
F0.08672871452
sVid
p219
VAgreeableness
p220
sVpercentage
p221
F0.9721849887837615
sVchildren
p222
(lp223
(dp224
Vcategory
p225
Vpersonality
p226
sVpercentage
p227
F0.5115503638678014
sVid
p228
VAltruism
p229
sVsampling_error
p230
F0.06261189212
sVname
p231
VAltruism
p232
sa(dp233
Vcategory
p234
Vpersonality
p235
sVpercentage
p236
F0.27857681460472783
sVid
p237
VCooperation
p238
sVsampling_error
p239
F0.07223162872
sVname
p240
VCooperation
p241
sa(dp242
Vcategory
p243
Vpersonality
p244
sVpercentage
p245
F0.8417733685463992
sVid
p246
VModesty
p247
sVsampling_error
p248
F0.04806723024
sVname
p249
VModesty
p250
sa(dp251
Vcategory
p252
Vpersonality
p253
sVpercentage
p254
F0.9340065981059237
sVid
p255
VMorality
p256
sVsampling_error
p257
F0.05571660572
sVname
p258
VUncompromising
p259
sa(dp260
Vcategory
p261
Vpersonality
p262
sVpercentage
p263
F0.7397301220053595
sVid
p264
VSympathy
p265
sVsampling_error
p266
F0.08719834668
sVname
p267
VSympathy
p268
sa(dp269
Vcategory
p270
Vpersonality
p271
sVpercentage
p272
F0.7077454856770818
sVid
p273
VTrust
p274
sVsampling_error
p275
F0.04810621924
sVname
p276
VTrust
p277
sasa(dp278
Vcategory
p279
Vpersonality
p280
sVname
p281
VEmotional range
p282
sVsampling_error
p283
F0.07868927151999999
sVid
p284
VNeuroticism
p285
sVpercentage
p286
F0.9019571584063578
sVchildren
p287
(lp288
(dp289
Vcategory
p290
Vpersonality
p291
sVpercentage
p292
F0.9282944597949437
sVid
p293
VAnger
p294
sVsampling_error
p295
F0.08278153416
sVname
p296
VFiery
p297
sa(dp298
Vcategory
p299
Vpersonality
p300
sVpercentage
p301
F0.8211890703905873
sVid
p302
VAnxiety
p303
sVsampling_error
p304
F0.04783646216
sVname
p305
VProne to worry
p306
sa(dp307
Vcategory
p308
Vpersonality
p309
sVpercentage
p310
F0.9036965541154118
sVid
p311
VDepression
p312
sVsampling_error
p313
F0.050212978920000005
sVname
p314
VMelancholy
p315
sa(dp316
Vcategory
p317
Vpersonality
p318
sVpercentage
p319
F0.8841717128773777
sVid
p320
VImmoderation
p321
sVsampling_error
p322
F0.04766381208
sVname
p323
VImmoderation
p324
sa(dp325
Vcategory
p326
Vpersonality
p327
sVpercentage
p328
F0.2779724719564666
sVid
p329
VSelf-consciousness
p330
sVsampling_error
p331
F0.04916889812
sVname
p332
VSelf-consciousness
p333
sa(dp334
Vcategory
p335
Vpersonality
p336
sVpercentage
p337
F0.8755572475640011
sVid
p338
VVulnerability
p339
sVsampling_error
p340
F0.07391999344
sVname
p341
VSusceptible to stress
p342
sasasVid
p343
VAgreeableness_parent
p344
sVname
p345
VAgreeableness
p346
sasVid
p347
Vpersonality
p348
sVname
p349
VBig 5
p350
sa(dp351
Vchildren
p352
(lp353
(dp354
Vcategory
p355
Vneeds
p356
sVpercentage
p357
F1.0
sVchildren
p358
(lp359
(dp360
Vcategory
p361
Vneeds
p362
sVpercentage
p363
F0.031455911476618255
sVid
p364
VChallenge
p365
sVsampling_error
p366
F0.07351520108000001
sVname
p367
VChallenge
p368
sa(dp369
Vcategory
p370
Vneeds
p371
sVpercentage
p372
F0.7513178145092029
sVid
p373
VCloseness
p374
sVsampling_error
p375
F0.07290356848
sVname
p376
VCloseness
p377
sa(dp378
Vcategory
p379
Vneeds
p380
sVpercentage
p381
F0.6356822462578592
sVid
p382
VCuriosity
p383
sVsampling_error
p384
F0.1043992462
sVname
p385
VCuriosity
p386
sa(dp387
Vcategory
p388
Vneeds
p389
sVpercentage
p390
F0.587367498071684
sVid
p391
VExcitement
p392
sVsampling_error
p393
F0.0942499606
sVname
p394
VExcitement
p395
sa(dp396
Vcategory
p397
Vneeds
p398
sVpercentage
p399
F1.0
sVid
p400
VHarmony
p401
sVsampling_error
p402
F0.09358360196
sVname
p403
VHarmony
p404
sa(dp405
Vcategory
p406
Vneeds
p407
sVpercentage
p408
F0.13398358707804106
sVid
p409
VIdeal
p410
sVsampling_error
p411
F0.08444866036
sVname
p412
VIdeal
p413
sa(dp414
Vcategory
p415
Vneeds
p416
sVpercentage
p417
F0.7771908209612741
sVid
p418
VLiberty
p419
sVsampling_error
p420
F0.12574245808
sVname
p421
VLiberty
p422
sa(dp423
Vcategory
p424
Vneeds
p425
sVpercentage
p426
F0.9699709009852021
sVid
p427
VLove
p428
sVsampling_error
p429
F0.08541141696
sVname
p430
VLove
p431
sa(dp432
Vcategory
p433
Vneeds
p434
sVpercentage
p435
F1.0
sVid
p436
VPracticality
p437
sVsampling_error
p438
F0.07600946704
sVname
p439
VPracticality
p440
sa(dp441
Vcategory
p442
Vneeds
p443
sVpercentage
p444
F0.033674515399012526
sVid
p445
VSelf-expression
p446
sVsampling_error
p447
F0.07161534112
sVname
p448
VSelf-expression
p449
sa(dp450
Vcategory
p451
Vneeds
p452
sVpercentage
p453
F0.5124578676929631
sVid
p454
VStability
p455
sVsampling_error
p456
F0.09313060308
sVname
p457
VStability
p458
sa(dp459
Vcategory
p460
Vneeds
p461
sVpercentage
p462
F0.13135204161983752
sVid
p463
VStructure
p464
sVsampling_error
p465
F0.06974113088
sVname
p466
VStructure
p467
sasVid
p468
VHarmony_parent
p469
sVname
p470
VHarmony
p471
sasVid
p472
Vneeds
p473
sVname
p474
VNeeds
p475
sa(dp476
Vchildren
p477
(lp478
(dp479
Vcategory
p480
Vvalues
p481
sVpercentage
p482
F0.04659207824202985
sVchildren
p483
(lp484
(dp485
Vcategory
p486
Vvalues
p487
sVpercentage
p488
F0.04659207824202985
sVid
p489
VConservation
p490
sVsampling_error
p491
F0.06235154212
sVname
p492
VConservation
p493
sa(dp494
Vcategory
p495
Vvalues
p496
sVpercentage
p497
F0.9116652878825011
sVid
p498
VOpenness to change
p499
sVsampling_error
p500
F0.057457031039999995
sVname
p501
VOpenness to change
p502
sa(dp503
Vcategory
p504
Vvalues
p505
sVpercentage
p506
F0.6767258682603869
sVid
p507
VHedonism
p508
sVsampling_error
p509
F0.11618832468
sVname
p510
VHedonism
p511
sa(dp512
Vcategory
p513
Vvalues
p514
sVpercentage
p515
F0.14536085544003985
sVid
p516
VSelf-enhancement
p517
sVsampling_error
p518
F0.08920792936000001
sVname
p519
VSelf-enhancement
p520
sa(dp521
Vcategory
p522
Vvalues
p523
sVpercentage
p524
F0.8672398859211571
sVid
p525
VSelf-transcendence
p526
sVsampling_error
p527
F0.06697659308
sVname
p528
VSelf-transcendence
p529
sasVid
p530
VConservation_parent
p531
sVname
p532
VConservation
p533
sasVid
p534
Vvalues
p535
sVname
p536
VValues
p537
sasVid
p538
Vr
p539
sVname
p540
Vroot
p541
ssVid
p542
V*UNKNOWN*
p543
sVword_count
p544
I5099
sVprocessed_lang
p545
Ven
p546
sa(dp547
Vsource
p548
V*UNKNOWN*
p549
sVtree
p550
(dp551
Vchildren
p552
(lp553
(dp554
Vchildren
p555
(lp556
(dp557
Vcategory
p558
Vpersonality
p559
sVpercentage
p560
F1.0
sVchildren
p561
(lp562
(dp563
Vcategory
p564
Vpersonality
p565
sVname
p566
VOpenness
p567
sVsampling_error
p568
F0.05387190128
sVid
p569
VOpenness
p570
sVpercentage
p571
F0.04534101631745416
sVchildren
p572
(lp573
(dp574
Vcategory
p575
Vpersonality
p576
sVpercentage
p577
F0.14831198736611956
sVid
p578
VAdventurousness
p579
sVsampling_error
p580
F0.046797232640000005
sVname
p581
VAdventurousness
p582
sa(dp583
Vcategory
p584
Vpersonality
p585
sVpercentage
p586
F0.06907755834474467
sVid
p587
VArtistic interests
p588
sVsampling_error
p589
F0.09560970376
sVname
p590
VArtistic interests
p591
sa(dp592
Vcategory
p593
Vpersonality
p594
sVpercentage
p595
F0.8325932837096096
sVid
p596
VEmotionality
p597
sVsampling_error
p598
F0.04456765696
sVname
p599
VEmotionality
p600
sa(dp601
Vcategory
p602
Vpersonality
p603
sVpercentage
p604
F0.009801589612618162
sVid
p605
VImagination
p606
sVsampling_error
p607
F0.0580702904
sVname
p608
VImagination
p609
sa(dp610
Vcategory
p611
Vpersonality
p612
sVpercentage
p613
F0.06706636831246829
sVid
p614
VIntellect
p615
sVsampling_error
p616
F0.05069337344
sVname
p617
VIntellect
p618
sa(dp619
Vcategory
p620
Vpersonality
p621
sVpercentage
p622
F0.018667791096346704
sVid
p623
VLiberalism
p624
sVsampling_error
p625
F0.07677306936
sVname
p626
VAuthority-challenging
p627
sasa(dp628
Vcategory
p629
Vpersonality
p630
sVname
p631
VConscientiousness
p632
sVsampling_error
p633
F0.06857880856000001
sVid
p634
VConscientiousness
p635
sVpercentage
p636
F0.03486446220894286
sVchildren
p637
(lp638
(dp639
Vcategory
p640
Vpersonality
p641
sVpercentage
p642
F0.01161010545692812
sVid
p643
VAchievement striving
p644
sVsampling_error
p645
F0.09060137800000001
sVname
p646
VAchievement striving
p647
sa(dp648
Vcategory
p649
Vpersonality
p650
sVpercentage
p651
F0.07262231345093847
sVid
p652
VCautiousness
p653
sVsampling_error
p654
F0.08368537944
sVname
p655
VCautiousness
p656
sa(dp657
Vcategory
p658
Vpersonality
p659
sVpercentage
p660
F0.14442247139991052
sVid
p661
VDutifulness
p662
sVsampling_error
p663
F0.05554175168
sVname
p664
VDutifulness
p665
sa(dp666
Vcategory
p667
Vpersonality
p668
sVpercentage
p669
F0.7088405553149953
sVid
p670
VOrderliness
p671
sVsampling_error
p672
F0.06453126224
sVname
p673
VOrderliness
p674
sa(dp675
Vcategory
p676
Vpersonality
p677
sVpercentage
p678
F0.055713775629863314
sVid
p679
VSelf-discipline
p680
sVsampling_error
p681
F0.04275963776
sVname
p682
VSelf-discipline
p683
sa(dp684
Vcategory
p685
Vpersonality
p686
sVpercentage
p687
F0.3902893952009104
sVid
p688
VSelf-efficacy
p689
sVsampling_error
p690
F0.08394010384
sVname
p691
VSelf-efficacy
p692
sasa(dp693
Vcategory
p694
Vpersonality
p695
sVname
p696
VExtraversion
p697
sVsampling_error
p698
F0.05068154904
sVid
p699
VExtraversion
p700
sVpercentage
p701
F0.9851072474574625
sVchildren
p702
(lp703
(dp704
Vcategory
p705
Vpersonality
p706
sVpercentage
p707
F0.30862074802396966
sVid
p708
VActivity level
p709
sVsampling_error
p710
F0.07097520864
sVname
p711
VActivity level
p712
sa(dp713
Vcategory
p714
Vpersonality
p715
sVpercentage
p716
F1.0
sVid
p717
VAssertiveness
p718
sVsampling_error
p719
F0.07541249712
sVname
p720
VAssertiveness
p721
sa(dp722
Vcategory
p723
Vpersonality
p724
sVpercentage
p725
F0.9522007351588573
sVid
p726
VCheerfulness
p727
sVsampling_error
p728
F0.09462458216
sVname
p729
VCheerfulness
p730
sa(dp731
Vcategory
p732
Vpersonality
p733
sVpercentage
p734
F0.6837988049177242
sVid
p735
VExcitement-seeking
p736
sVsampling_error
p737
F0.07616759696
sVname
p738
VExcitement-seeking
p739
sa(dp740
Vcategory
p741
Vpersonality
p742
sVpercentage
p743
F0.9786015008434882
sVid
p744
VFriendliness
p745
sVsampling_error
p746
F0.06859252552
sVname
p747
VOutgoing
p748
sa(dp749
Vcategory
p750
Vpersonality
p751
sVpercentage
p752
F0.9474264184659059
sVid
p753
VGregariousness
p754
sVsampling_error
p755
F0.05336717032
sVname
p756
VGregariousness
p757
sasa(dp758
Vcategory
p759
Vpersonality
p760
sVname
p761
VAgreeableness
p762
sVsampling_error
p763
F0.08928510712
sVid
p764
VAgreeableness
p765
sVpercentage
p766
F1.0
sVchildren
p767
(lp768
(dp769
Vcategory
p770
Vpersonality
p771
sVpercentage
p772
F0.7626357722155189
sVid
p773
VAltruism
p774
sVsampling_error
p775
F0.0646808132
sVname
p776
VAltruism
p777
sa(dp778
Vcategory
p779
Vpersonality
p780
sVpercentage
p781
F0.230762442606515
sVid
p782
VCooperation
p783
sVsampling_error
p784
F0.07356972752
sVname
p785
VCooperation
p786
sa(dp787
Vcategory
p788
Vpersonality
p789
sVpercentage
p790
F0.8726052157565006
sVid
p791
VModesty
p792
sVsampling_error
p793
F0.05012123032
sVname
p794
VModesty
p795
sa(dp796
Vcategory
p797
Vpersonality
p798
sVpercentage
p799
F0.9613389165617668
sVid
p800
VMorality
p801
sVsampling_error
p802
F0.05754713728
sVname
p803
VUncompromising
p804
sa(dp805
Vcategory
p806
Vpersonality
p807
sVpercentage
p808
F0.6472025560309078
sVid
p809
VSympathy
p810
sVsampling_error
p811
F0.08848369096
sVname
p812
VSympathy
p813
sa(dp814
Vcategory
p815
Vpersonality
p816
sVpercentage
p817
F0.7603636610511056
sVid
p818
VTrust
p819
sVsampling_error
p820
F0.04983160984
sVname
p821
VTrust
p822
sasa(dp823
Vcategory
p824
Vpersonality
p825
sVname
p826
VEmotional range
p827
sVsampling_error
p828
F0.08118796056
sVid
p829
VNeuroticism
p830
sVpercentage
p831
F0.686583947872446
sVchildren
p832
(lp833
(dp834
Vcategory
p835
Vpersonality
p836
sVpercentage
p837
F0.8557722023592336
sVid
p838
VAnger
p839
sVsampling_error
p840
F0.085741918
sVname
p841
VFiery
p842
sa(dp843
Vcategory
p844
Vpersonality
p845
sVpercentage
p846
F0.6314652655381509
sVid
p847
VAnxiety
p848
sVsampling_error
p849
F0.04996867512
sVname
p850
VProne to worry
p851
sa(dp852
Vcategory
p853
Vpersonality
p854
sVpercentage
p855
F0.7938145123496547
sVid
p856
VDepression
p857
sVsampling_error
p858
F0.0528974096
sVname
p859
VMelancholy
p860
sa(dp861
Vcategory
p862
Vpersonality
p863
sVpercentage
p864
F0.8549257976073901
sVid
p865
VImmoderation
p866
sVsampling_error
p867
F0.0483469372
sVname
p868
VImmoderation
p869
sa(dp870
Vcategory
p871
Vpersonality
p872
sVpercentage
p873
F0.020257599477008177
sVid
p874
VSelf-consciousness
p875
sVsampling_error
p876
F0.05095645728
sVname
p877
VSelf-consciousness
p878
sa(dp879
Vcategory
p880
Vpersonality
p881
sVpercentage
p882
F0.6838487308765987
sVid
p883
VVulnerability
p884
sVsampling_error
p885
F0.07730001888
sVname
p886
VSusceptible to stress
p887
sasasVid
p888
VAgreeableness_parent
p889
sVname
p890
VAgreeableness
p891
sasVid
p892
Vpersonality
p893
sVname
p894
VBig 5
p895
sa(dp896
Vchildren
p897
(lp898
(dp899
Vcategory
p900
Vneeds
p901
sVpercentage
p902
F1.0
sVchildren
p903
(lp904
(dp905
Vcategory
p906
Vneeds
p907
sVpercentage
p908
F0.009744896649718887
sVid
p909
VChallenge
p910
sVsampling_error
p911
F0.07651213704
sVname
p912
VChallenge
p913
sa(dp914
Vcategory
p915
Vneeds
p916
sVpercentage
p917
F0.8333009483941675
sVid
p918
VCloseness
p919
sVsampling_error
p920
F0.07549142232
sVname
p921
VCloseness
p922
sa(dp923
Vcategory
p924
Vneeds
p925
sVpercentage
p926
F0.5151644133369813
sVid
p927
VCuriosity
p928
sVsampling_error
p929
F0.10825424704
sVname
p930
VCuriosity
p931
sa(dp932
Vcategory
p933
Vneeds
p934
sVpercentage
p935
F0.6840644603162312
sVid
p936
VExcitement
p937
sVsampling_error
p938
F0.09776405456
sVname
p939
VExcitement
p940
sa(dp941
Vcategory
p942
Vneeds
p943
sVpercentage
p944
F1.0
sVid
p945
VHarmony
p946
sVsampling_error
p947
F0.0967096572
sVname
p948
VHarmony
p949
sa(dp950
Vcategory
p951
Vneeds
p952
sVpercentage
p953
F0.1902302775470785
sVid
p954
VIdeal
p955
sVsampling_error
p956
F0.08787844071999999
sVname
p957
VIdeal
p958
sa(dp959
Vcategory
p960
Vneeds
p961
sVpercentage
p962
F0.8549479235678762
sVid
p963
VLiberty
p964
sVsampling_error
p965
F0.13159580848
sVname
p966
VLiberty
p967
sa(dp968
Vcategory
p969
Vneeds
p970
sVpercentage
p971
F0.9680118545907392
sVid
p972
VLove
p973
sVsampling_error
p974
F0.08931077184000001
sVname
p975
VLove
p976
sa(dp977
Vcategory
p978
Vneeds
p979
sVpercentage
p980
F1.0
sVid
p981
VPracticality
p982
sVsampling_error
p983
F0.07840208784
sVname
p984
VPracticality
p985
sa(dp986
Vcategory
p987
Vneeds
p988
sVpercentage
p989
F0.09434432502899309
sVid
p990
VSelf-expression
p991
sVsampling_error
p992
F0.07390014112
sVname
p993
VSelf-expression
p994
sa(dp995
Vcategory
p996
Vneeds
p997
sVpercentage
p998
F0.6533554855240373
sVid
p999
VStability
p1000
sVsampling_error
p1001
F0.09552500847999999
sVname
p1002
VStability
p1003
sa(dp1004
Vcategory
p1005
Vneeds
p1006
sVpercentage
p1007
F0.11027159308204139
sVid
p1008
VStructure
p1009
sVsampling_error
p1010
F0.0722249724
sVname
p1011
VStructure
p1012
sasVid
p1013
VHarmony_parent
p1014
sVname
p1015
VHarmony
p1016
sasVid
p1017
Vneeds
p1018
sVname
p1019
VNeeds
p1020
sa(dp1021
Vchildren
p1022
(lp1023
(dp1024
Vcategory
p1025
Vvalues
p1026
sVpercentage
p1027
F0.030569750388224907
sVchildren
p1028
(lp1029
(dp1030
Vcategory
p1031
Vvalues
p1032
sVpercentage
p1033
F0.030569750388224907
sVid
p1034
VConservation
p1035
sVsampling_error
p1036
F0.063684926
sVname
p1037
VConservation
p1038
sa(dp1039
Vcategory
p1040
Vvalues
p1041
sVpercentage
p1042
F0.9654975166385289
sVid
p1043
VOpenness to change
p1044
sVsampling_error
p1045
F0.059141387520000005
sVname
p1046
VOpenness to change
p1047
sa(dp1048
Vcategory
p1049
Vvalues
p1050
sVpercentage
p1051
F0.910318579920018
sVid
p1052
VHedonism
p1053
sVsampling_error
p1054
F0.12315260048
sVname
p1055
VHedonism
p1056
sa(dp1057
Vcategory
p1058
Vvalues
p1059
sVpercentage
p1060
F0.06909493742331295
sVid
p1061
VSelf-enhancement
p1062
sVsampling_error
p1063
F0.09304950248
sVname
p1064
VSelf-enhancement
p1065
sa(dp1066
Vcategory
p1067
Vvalues
p1068
sVpercentage
p1069
F0.7281795371272345
sVid
p1070
VSelf-transcendence
p1071
sVsampling_error
p1072
F0.07024819288
sVname
p1073
VSelf-transcendence
p1074
sasVid
p1075
VConservation_parent
p1076
sVname
p1077
VConservation
p1078
sasVid
p1079
Vvalues
p1080
sVname
p1081
VValues
p1082
sasVid
p1083
Vr
p1084
sVname
p1085
Vroot
p1086
ssVid
p1087
V*UNKNOWN*
p1088
sVword_count
p1089
I3622
sVprocessed_lang
p1090
Ven
p1091
sa(dp1092
Vsource
p1093
V*UNKNOWN*
p1094
sVtree
p1095
(dp1096
Vchildren
p1097
(lp1098
(dp1099
Vchildren
p1100
(lp1101
(dp1102
Vcategory
p1103
Vpersonality
p1104
sVpercentage
p1105
F0.9815314991003183
sVchildren
p1106
(lp1107
(dp1108
Vcategory
p1109
Vpersonality
p1110
sVname
p1111
VOpenness
p1112
sVsampling_error
p1113
F0.05258187208
sVid
p1114
VOpenness
p1115
sVpercentage
p1116
F0.09547331320581641
sVchildren
p1117
(lp1118
(dp1119
Vcategory
p1120
Vpersonality
p1121
sVpercentage
p1122
F0.17408323144457374
sVid
p1123
VAdventurousness
p1124
sVsampling_error
p1125
F0.0460554276
sVname
p1126
VAdventurousness
p1127
sa(dp1128
Vcategory
p1129
Vpersonality
p1130
sVpercentage
p1131
F0.052492822537405566
sVid
p1132
VArtistic interests
p1133
sVsampling_error
p1134
F0.09420450272
sVname
p1135
VArtistic interests
p1136
sa(dp1137
Vcategory
p1138
Vpersonality
p1139
sVpercentage
p1140
F0.8115078991819183
sVid
p1141
VEmotionality
p1142
sVsampling_error
p1143
F0.04381323936
sVname
p1144
VEmotionality
p1145
sa(dp1146
Vcategory
p1147
Vpersonality
p1148
sVpercentage
p1149
F0.013450083325655764
sVid
p1150
VImagination
p1151
sVsampling_error
p1152
F0.05696065376
sVname
p1153
VImagination
p1154
sa(dp1155
Vcategory
p1156
Vpersonality
p1157
sVpercentage
p1158
F0.10877526891033638
sVid
p1159
VIntellect
p1160
sVsampling_error
p1161
F0.04971953872
sVname
p1162
VIntellect
p1163
sa(dp1164
Vcategory
p1165
Vpersonality
p1166
sVpercentage
p1167
F0.0653374555209507
sVid
p1168
VLiberalism
p1169
sVsampling_error
p1170
F0.07560462752
sVname
p1171
VAuthority-challenging
p1172
sasa(dp1173
Vcategory
p1174
Vpersonality
p1175
sVname
p1176
VConscientiousness
p1177
sVsampling_error
p1178
F0.06747994392
sVid
p1179
VConscientiousness
p1180
sVpercentage
p1181
F0.05161104784018609
sVchildren
p1182
(lp1183
(dp1184
Vcategory
p1185
Vpersonality
p1186
sVpercentage
p1187
F0.013958514184005729
sVid
p1188
VAchievement striving
p1189
sVsampling_error
p1190
F0.08962918791999999
sVname
p1191
VAchievement striving
p1192
sa(dp1193
Vcategory
p1194
Vpersonality
p1195
sVpercentage
p1196
F0.0921880978042869
sVid
p1197
VCautiousness
p1198
sVsampling_error
p1199
F0.08311537024
sVname
p1200
VCautiousness
p1201
sa(dp1202
Vcategory
p1203
Vpersonality
p1204
sVpercentage
p1205
F0.12016846100526439
sVid
p1206
VDutifulness
p1207
sVsampling_error
p1208
F0.054409248959999996
sVname
p1209
VDutifulness
p1210
sa(dp1211
Vcategory
p1212
Vpersonality
p1213
sVpercentage
p1214
F0.7528334866340268
sVid
p1215
VOrderliness
p1216
sVsampling_error
p1217
F0.06298970656
sVname
p1218
VOrderliness
p1219
sa(dp1220
Vcategory
p1221
Vpersonality
p1222
sVpercentage
p1223
F0.043658595815021545
sVid
p1224
VSelf-discipline
p1225
sVsampling_error
p1226
F0.04221220288
sVname
p1227
VSelf-discipline
p1228
sa(dp1229
Vcategory
p1230
Vpersonality
p1231
sVpercentage
p1232
F0.41065423778321913
sVid
p1233
VSelf-efficacy
p1234
sVsampling_error
p1235
F0.08236200192
sVname
p1236
VSelf-efficacy
p1237
sasa(dp1238
Vcategory
p1239
Vpersonality
p1240
sVname
p1241
VExtraversion
p1242
sVsampling_error
p1243
F0.050148124
sVid
p1244
VExtraversion
p1245
sVpercentage
p1246
F0.9585615053269916
sVchildren
p1247
(lp1248
(dp1249
Vcategory
p1250
Vpersonality
p1251
sVpercentage
p1252
F0.138425948519157
sVid
p1253
VActivity level
p1254
sVsampling_error
p1255
F0.06967917752
sVname
p1256
VActivity level
p1257
sa(dp1258
Vcategory
p1259
Vpersonality
p1260
sVpercentage
p1261
F0.9739680799538851
sVid
p1262
VAssertiveness
p1263
sVsampling_error
p1264
F0.07451165368000001
sVname
p1265
VAssertiveness
p1266
sa(dp1267
Vcategory
p1268
Vpersonality
p1269
sVpercentage
p1270
F0.8830893265230232
sVid
p1271
VCheerfulness
p1272
sVsampling_error
p1273
F0.09316425592000001
sVname
p1274
VCheerfulness
p1275
sa(dp1276
Vcategory
p1277
Vpersonality
p1278
sVpercentage
p1279
F0.5796307796865763
sVid
p1280
VExcitement-seeking
p1281
sVsampling_error
p1282
F0.07531556112
sVname
p1283
VExcitement-seeking
p1284
sa(dp1285
Vcategory
p1286
Vpersonality
p1287
sVpercentage
p1288
F0.9439245716067332
sVid
p1289
VFriendliness
p1290
sVsampling_error
p1291
F0.0676428172
sVname
p1292
VOutgoing
p1293
sa(dp1294
Vcategory
p1295
Vpersonality
p1296
sVpercentage
p1297
F0.8736828214137391
sVid
p1298
VGregariousness
p1299
sVsampling_error
p1300
F0.052403488399999996
sVname
p1301
VGregariousness
p1302
sasa(dp1303
Vcategory
p1304
Vpersonality
p1305
sVname
p1306
VAgreeableness
p1307
sVsampling_error
p1308
F0.08794637295999999
sVid
p1309
VAgreeableness
p1310
sVpercentage
p1311
F0.9815314991003183
sVchildren
p1312
(lp1313
(dp1314
Vcategory
p1315
Vpersonality
p1316
sVpercentage
p1317
F0.5548593755247947
sVid
p1318
VAltruism
p1319
sVsampling_error
p1320
F0.06333997936
sVname
p1321
VAltruism
p1322
sa(dp1323
Vcategory
p1324
Vpersonality
p1325
sVpercentage
p1326
F0.2071179130527651
sVid
p1327
VCooperation
p1328
sVsampling_error
p1329
F0.07268639728
sVname
p1330
VCooperation
p1331
sa(dp1332
Vcategory
p1333
Vpersonality
p1334
sVpercentage
p1335
F0.9197846508010871
sVid
p1336
VModesty
p1337
sVsampling_error
p1338
F0.049167641760000005
sVname
p1339
VModesty
p1340
sa(dp1341
Vcategory
p1342
Vpersonality
p1343
sVpercentage
p1344
F0.9373755664825606
sVid
p1345
VMorality
p1346
sVsampling_error
p1347
F0.05667930912
sVname
p1348
VUncompromising
p1349
sa(dp1350
Vcategory
p1351
Vpersonality
p1352
sVpercentage
p1353
F0.687192647221257
sVid
p1354
VSympathy
p1355
sVsampling_error
p1356
F0.08765594487999999
sVname
p1357
VSympathy
p1358
sa(dp1359
Vcategory
p1360
Vpersonality
p1361
sVpercentage
p1362
F0.7018367446845293
sVid
p1363
VTrust
p1364
sVsampling_error
p1365
F0.04856377776
sVname
p1366
VTrust
p1367
sasa(dp1368
Vcategory
p1369
Vpersonality
p1370
sVname
p1371
VEmotional range
p1372
sVsampling_error
p1373
F0.0796907132
sVid
p1374
VNeuroticism
p1375
sVpercentage
p1376
F0.7748423625409443
sVchildren
p1377
(lp1378
(dp1379
Vcategory
p1380
Vpersonality
p1381
sVpercentage
p1382
F0.8712158897943544
sVid
p1383
VAnger
p1384
sVsampling_error
p1385
F0.08408605543999999
sVname
p1386
VFiery
p1387
sa(dp1388
Vcategory
p1389
Vpersonality
p1390
sVpercentage
p1391
F0.703856917123932
sVid
p1392
VAnxiety
p1393
sVsampling_error
p1394
F0.04892248312
sVname
p1395
VProne to worry
p1396
sa(dp1397
Vcategory
p1398
Vpersonality
p1399
sVpercentage
p1400
F0.824466165395042
sVid
p1401
VDepression
p1402
sVsampling_error
p1403
F0.0513942752
sVname
p1404
VMelancholy
p1405
sa(dp1406
Vcategory
p1407
Vpersonality
p1408
sVpercentage
p1409
F0.8435551692217838
sVid
p1410
VImmoderation
p1411
sVsampling_error
p1412
F0.04788073472
sVname
p1413
VImmoderation
p1414
sa(dp1415
Vcategory
p1416
Vpersonality
p1417
sVpercentage
p1418
F0.04263019480413149
sVid
p1419
VSelf-consciousness
p1420
sVsampling_error
p1421
F0.050243107599999996
sVname
p1422
VSelf-consciousness
p1423
sa(dp1424
Vcategory
p1425
Vpersonality
p1426
sVpercentage
p1427
F0.7221375681873183
sVid
p1428
VVulnerability
p1429
sVsampling_error
p1430
F0.07584962215999999
sVname
p1431
VSusceptible to stress
p1432
sasasVid
p1433
VAgreeableness_parent
p1434
sVname
p1435
VAgreeableness
p1436
sasVid
p1437
Vpersonality
p1438
sVname
p1439
VBig 5
p1440
sa(dp1441
Vchildren
p1442
(lp1443
(dp1444
Vcategory
p1445
Vneeds
p1446
sVpercentage
p1447
F1.0
sVchildren
p1448
(lp1449
(dp1450
Vcategory
p1451
Vneeds
p1452
sVpercentage
p1453
F0.018686491669662575
sVid
p1454
VChallenge
p1455
sVsampling_error
p1456
F0.07503007368
sVname
p1457
VChallenge
p1458
sa(dp1459
Vcategory
p1460
Vneeds
p1461
sVpercentage
p1462
F0.749534265913657
sVid
p1463
VCloseness
p1464
sVsampling_error
p1465
F0.0741648192
sVname
p1466
VCloseness
p1467
sa(dp1468
Vcategory
p1469
Vneeds
p1470
sVpercentage
p1471
F0.5403348991189078
sVid
p1472
VCuriosity
p1473
sVsampling_error
p1474
F0.10652287856
sVname
p1475
VCuriosity
p1476
sa(dp1477
Vcategory
p1478
Vneeds
p1479
sVpercentage
p1480
F0.6474076529765223
sVid
p1481
VExcitement
p1482
sVsampling_error
p1483
F0.09598558024
sVname
p1484
VExcitement
p1485
sa(dp1486
Vcategory
p1487
Vneeds
p1488
sVpercentage
p1489
F1.0
sVid
p1490
VHarmony
p1491
sVsampling_error
p1492
F0.09601755296
sVname
p1493
VHarmony
p1494
sa(dp1495
Vcategory
p1496
Vneeds
p1497
sVpercentage
p1498
F0.1221004371386063
sVid
p1499
VIdeal
p1500
sVsampling_error
p1501
F0.08599486208
sVname
p1502
VIdeal
p1503
sa(dp1504
Vcategory
p1505
Vneeds
p1506
sVpercentage
p1507
F0.8377608361927578
sVid
p1508
VLiberty
p1509
sVsampling_error
p1510
F0.12863915888
sVname
p1511
VLiberty
p1512
sa(dp1513
Vcategory
p1514
Vneeds
p1515
sVpercentage
p1516
F0.9759350320383763
sVid
p1517
VLove
p1518
sVsampling_error
p1519
F0.08798985784
sVname
p1520
VLove
p1521
sa(dp1522
Vcategory
p1523
Vneeds
p1524
sVpercentage
p1525
F1.0
sVid
p1526
VPracticality
p1527
sVsampling_error
p1528
F0.07699465824
sVname
p1529
VPracticality
p1530
sa(dp1531
Vcategory
p1532
Vneeds
p1533
sVpercentage
p1534
F0.2284488290556767
sVid
p1535
VSelf-expression
p1536
sVsampling_error
p1537
F0.07266155432
sVname
p1538
VSelf-expression
p1539
sa(dp1540
Vcategory
p1541
Vneeds
p1542
sVpercentage
p1543
F0.5944828395621524
sVid
p1544
VStability
p1545
sVsampling_error
p1546
F0.09445084831999999
sVname
p1547
VStability
p1548
sa(dp1549
Vcategory
p1550
Vneeds
p1551
sVpercentage
p1552
F0.10151079596792609
sVid
p1553
VStructure
p1554
sVsampling_error
p1555
F0.07073934895999999
sVname
p1556
VStructure
p1557
sasVid
p1558
VHarmony_parent
p1559
sVname
p1560
VHarmony
p1561
sasVid
p1562
Vneeds
p1563
sVname
p1564
VNeeds
p1565
sa(dp1566
Vchildren
p1567
(lp1568
(dp1569
Vcategory
p1570
Vvalues
p1571
sVpercentage
p1572
F0.0193891184550554
sVchildren
p1573
(lp1574
(dp1575
Vcategory
p1576
Vvalues
p1577
sVpercentage
p1578
F0.0193891184550554
sVid
p1579
VConservation
p1580
sVsampling_error
p1581
F0.062215323440000005
sVname
p1582
VConservation
p1583
sa(dp1584
Vcategory
p1585
Vvalues
p1586
sVpercentage
p1587
F0.9605403371886787
sVid
p1588
VOpenness to change
p1589
sVsampling_error
p1590
F0.05765330296
sVname
p1591
VOpenness to change
p1592
sa(dp1593
Vcategory
p1594
Vvalues
p1595
sVpercentage
p1596
F0.8864110776101096
sVid
p1597
VHedonism
p1598
sVsampling_error
p1599
F0.11895178256000001
sVname
p1600
VHedonism
p1601
sa(dp1602
Vcategory
p1603
Vvalues
p1604
sVpercentage
p1605
F0.0863088863226279
sVid
p1606
VSelf-enhancement
p1607
sVsampling_error
p1608
F0.0915301576
sVname
p1609
VSelf-enhancement
p1610
sa(dp1611
Vcategory
p1612
Vvalues
p1613
sVpercentage
p1614
F0.8787670950814536
sVid
p1615
VSelf-transcendence
p1616
sVsampling_error
p1617
F0.06861261584
sVname
p1618
VSelf-transcendence
p1619
sasVid
p1620
VConservation_parent
p1621
sVname
p1622
VConservation
p1623
sasVid
p1624
Vvalues
p1625
sVname
p1626
VValues
p1627
sasVid
p1628
Vr
p1629
sVname
p1630
Vroot
p1631
ssVid
p1632
V*UNKNOWN*
p1633
sVword_count
p1634
I4464
sVprocessed_lang
p1635
Ven
p1636
sa(dp1637
Vsource
p1638
V*UNKNOWN*
p1639
sVtree
p1640
(dp1641
Vchildren
p1642
(lp1643
(dp1644
Vchildren
p1645
(lp1646
(dp1647
Vcategory
p1648
Vpersonality
p1649
sVpercentage
p1650
F0.009873731851363058
sVchildren
p1651
(lp1652
(dp1653
Vcategory
p1654
Vpersonality
p1655
sVname
p1656
VOpenness
p1657
sVsampling_error
p1658
F0.05286559916
sVid
p1659
VOpenness
p1660
sVpercentage
p1661
F0.04578041133187733
sVchildren
p1662
(lp1663
(dp1664
Vcategory
p1665
Vpersonality
p1666
sVpercentage
p1667
F0.08275322480651705
sVid
p1668
VAdventurousness
p1669
sVsampling_error
p1670
F0.0462738402
sVname
p1671
VAdventurousness
p1672
sa(dp1673
Vcategory
p1674
Vpersonality
p1675
sVpercentage
p1676
F0.009889326651252939
sVid
p1677
VArtistic interests
p1678
sVsampling_error
p1679
F0.09437589044
sVname
p1680
VArtistic interests
p1681
sa(dp1682
Vcategory
p1683
Vpersonality
p1684
sVpercentage
p1685
F0.9308660572424204
sVid
p1686
VEmotionality
p1687
sVsampling_error
p1688
F0.04387486372
sVname
p1689
VEmotionality
p1690
sa(dp1691
Vcategory
p1692
Vpersonality
p1693
sVpercentage
p1694
F0.01289366779246822
sVid
p1695
VImagination
p1696
sVsampling_error
p1697
F0.05709237752
sVname
p1698
VImagination
p1699
sa(dp1700
Vcategory
p1701
Vpersonality
p1702
sVpercentage
p1703
F0.04474227398090261
sVid
p1704
VIntellect
p1705
sVsampling_error
p1706
F0.04990799244
sVname
p1707
VIntellect
p1708
sa(dp1709
Vcategory
p1710
Vpersonality
p1711
sVpercentage
p1712
F0.07270818540810192
sVid
p1713
VLiberalism
p1714
sVsampling_error
p1715
F0.07585278004
sVname
p1716
VAuthority-challenging
p1717
sasa(dp1718
Vcategory
p1719
Vpersonality
p1720
sVname
p1721
VConscientiousness
p1722
sVsampling_error
p1723
F0.06765522784
sVid
p1724
VConscientiousness
p1725
sVpercentage
p1726
F0.009873731851363058
sVchildren
p1727
(lp1728
(dp1729
Vcategory
p1730
Vpersonality
p1731
sVpercentage
p1732
F0.008953311786084427
sVid
p1733
VAchievement striving
p1734
sVsampling_error
p1735
F0.08964733584
sVname
p1736
VAchievement striving
p1737
sa(dp1738
Vcategory
p1739
Vpersonality
p1740
sVpercentage
p1741
F0.01203069971316402
sVid
p1742
VCautiousness
p1743
sVsampling_error
p1744
F0.08321854548
sVname
p1745
VCautiousness
p1746
sa(dp1747
Vcategory
p1748
Vpersonality
p1749
sVpercentage
p1750
F0.023212679383586933
sVid
p1751
VDutifulness
p1752
sVsampling_error
p1753
F0.05452136292
sVname
p1754
VDutifulness
p1755
sa(dp1756
Vcategory
p1757
Vpersonality
p1758
sVpercentage
p1759
F0.8181882993311614
sVid
p1760
VOrderliness
p1761
sVsampling_error
p1762
F0.06329608312
sVname
p1763
VOrderliness
p1764
sa(dp1765
Vcategory
p1766
Vpersonality
p1767
sVpercentage
p1768
F0.016393837252344952
sVid
p1769
VSelf-discipline
p1770
sVsampling_error
p1771
F0.04220336076
sVname
p1772
VSelf-discipline
p1773
sa(dp1774
Vcategory
p1775
Vpersonality
p1776
sVpercentage
p1777
F0.1810396804780862
sVid
p1778
VSelf-efficacy
p1779
sVsampling_error
p1780
F0.08238964884000001
sVname
p1781
VSelf-efficacy
p1782
sasa(dp1783
Vcategory
p1784
Vpersonality
p1785
sVname
p1786
VExtraversion
p1787
sVsampling_error
p1788
F0.050233293
sVid
p1789
VExtraversion
p1790
sVpercentage
p1791
F0.9630648020019259
sVchildren
p1792
(lp1793
(dp1794
Vcategory
p1795
Vpersonality
p1796
sVpercentage
p1797
F0.15361180516369483
sVid
p1798
VActivity level
p1799
sVsampling_error
p1800
F0.06982187504
sVname
p1801
VActivity level
p1802
sa(dp1803
Vcategory
p1804
Vpersonality
p1805
sVpercentage
p1806
F0.9845452954609744
sVid
p1807
VAssertiveness
p1808
sVsampling_error
p1809
F0.07462481736
sVname
p1810
VAssertiveness
p1811
sa(dp1812
Vcategory
p1813
Vpersonality
p1814
sVpercentage
p1815
F0.8952713615540959
sVid
p1816
VCheerfulness
p1817
sVsampling_error
p1818
F0.09346624684
sVname
p1819
VCheerfulness
p1820
sa(dp1821
Vcategory
p1822
Vpersonality
p1823
sVpercentage
p1824
F0.9249686790682217
sVid
p1825
VExcitement-seeking
p1826
sVsampling_error
p1827
F0.07539427724
sVname
p1828
VExcitement-seeking
p1829
sa(dp1830
Vcategory
p1831
Vpersonality
p1832
sVpercentage
p1833
F0.9122244718702357
sVid
p1834
VFriendliness
p1835
sVsampling_error
p1836
F0.0677652094
sVname
p1837
VOutgoing
p1838
sa(dp1839
Vcategory
p1840
Vpersonality
p1841
sVpercentage
p1842
F0.8096746706738012
sVid
p1843
VGregariousness
p1844
sVsampling_error
p1845
F0.052406611799999996
sVname
p1846
VGregariousness
p1847
sasa(dp1848
Vcategory
p1849
Vpersonality
p1850
sVname
p1851
VAgreeableness
p1852
sVsampling_error
p1853
F0.08831190092
sVid
p1854
VAgreeableness
p1855
sVpercentage
p1856
F0.9399080939176389
sVchildren
p1857
(lp1858
(dp1859
Vcategory
p1860
Vpersonality
p1861
sVpercentage
p1862
F0.20067481232684037
sVid
p1863
VAltruism
p1864
sVsampling_error
p1865
F0.06350303372
sVname
p1866
VAltruism
p1867
sa(dp1868
Vcategory
p1869
Vpersonality
p1870
sVpercentage
p1871
F0.03858288391314359
sVid
p1872
VCooperation
p1873
sVsampling_error
p1874
F0.07280158955999999
sVname
p1875
VCooperation
p1876
sa(dp1877
Vcategory
p1878
Vpersonality
p1879
sVpercentage
p1880
F0.8670771414163102
sVid
p1881
VModesty
p1882
sVsampling_error
p1883
F0.04938517852
sVname
p1884
VModesty
p1885
sa(dp1886
Vcategory
p1887
Vpersonality
p1888
sVpercentage
p1889
F0.7266780735284308
sVid
p1890
VMorality
p1891
sVsampling_error
p1892
F0.056901798239999996
sVname
p1893
VUncompromising
p1894
sa(dp1895
Vcategory
p1896
Vpersonality
p1897
sVpercentage
p1898
F0.2761419081707992
sVid
p1899
VSympathy
p1900
sVsampling_error
p1901
F0.08762890976
sVname
p1902
VSympathy
p1903
sa(dp1904
Vcategory
p1905
Vpersonality
p1906
sVpercentage
p1907
F0.322299375795004
sVid
p1908
VTrust
p1909
sVsampling_error
p1910
F0.048782280520000006
sVname
p1911
VTrust
p1912
sasa(dp1913
Vcategory
p1914
Vpersonality
p1915
sVname
p1916
VEmotional range
p1917
sVsampling_error
p1918
F0.0797778464
sVid
p1919
VNeuroticism
p1920
sVpercentage
p1921
F0.9408398288432263
sVchildren
p1922
(lp1923
(dp1924
Vcategory
p1925
Vpersonality
p1926
sVpercentage
p1927
F0.968732752354447
sVid
p1928
VAnger
p1929
sVsampling_error
p1930
F0.08435879587999999
sVname
p1931
VFiery
p1932
sa(dp1933
Vcategory
p1934
Vpersonality
p1935
sVpercentage
p1936
F0.8571781701422663
sVid
p1937
VAnxiety
p1938
sVsampling_error
p1939
F0.049117441240000004
sVname
p1940
VProne to worry
p1941
sa(dp1942
Vcategory
p1943
Vpersonality
p1944
sVpercentage
p1945
F0.9637869470589054
sVid
p1946
VDepression
p1947
sVsampling_error
p1948
F0.0517304754
sVname
p1949
VMelancholy
p1950
sa(dp1951
Vcategory
p1952
Vpersonality
p1953
sVpercentage
p1954
F0.9839845220665421
sVid
p1955
VImmoderation
p1956
sVsampling_error
p1957
F0.04782060444
sVname
p1958
VImmoderation
p1959
sa(dp1960
Vcategory
p1961
Vpersonality
p1962
sVpercentage
p1963
F0.07492589298997993
sVid
p1964
VSelf-consciousness
p1965
sVsampling_error
p1966
F0.0505106252
sVname
p1967
VSelf-consciousness
p1968
sa(dp1969
Vcategory
p1970
Vpersonality
p1971
sVpercentage
p1972
F0.8623055889902076
sVid
p1973
VVulnerability
p1974
sVsampling_error
p1975
F0.07621469932
sVname
p1976
VSusceptible to stress
p1977
sasasVid
p1978
VConscientiousness_parent
p1979
sVname
p1980
VConscientiousness
p1981
sasVid
p1982
Vpersonality
p1983
sVname
p1984
VBig 5
p1985
sa(dp1986
Vchildren
p1987
(lp1988
(dp1989
Vcategory
p1990
Vneeds
p1991
sVpercentage
p1992
F1.0
sVchildren
p1993
(lp1994
(dp1995
Vcategory
p1996
Vneeds
p1997
sVpercentage
p1998
F0.24424693963664232
sVid
p1999
VChallenge
p2000
sVsampling_error
p2001
F0.07522212736
sVname
p2002
VChallenge
p2003
sa(dp2004
Vcategory
p2005
Vneeds
p2006
sVpercentage
p2007
F0.9661865473441796
sVid
p2008
VCloseness
p2009
sVsampling_error
p2010
F0.0743728634
sVname
p2011
VCloseness
p2012
sa(dp2013
Vcategory
p2014
Vneeds
p2015
sVpercentage
p2016
F0.9570946586733297
sVid
p2017
VCuriosity
p2018
sVsampling_error
p2019
F0.10674505211999999
sVname
p2020
VCuriosity
p2021
sa(dp2022
Vcategory
p2023
Vneeds
p2024
sVpercentage
p2025
F0.9507626433994109
sVid
p2026
VExcitement
p2027
sVsampling_error
p2028
F0.09619904048
sVname
p2029
VExcitement
p2030
sa(dp2031
Vcategory
p2032
Vneeds
p2033
sVpercentage
p2034
F1.0
sVid
p2035
VHarmony
p2036
sVsampling_error
p2037
F0.09606671592
sVname
p2038
VHarmony
p2039
sa(dp2040
Vcategory
p2041
Vneeds
p2042
sVpercentage
p2043
F0.8754886919681372
sVid
p2044
VIdeal
p2045
sVsampling_error
p2046
F0.08633252416
sVname
p2047
VIdeal
p2048
sa(dp2049
Vcategory
p2050
Vneeds
p2051
sVpercentage
p2052
F0.9745501781608585
sVid
p2053
VLiberty
p2054
sVsampling_error
p2055
F0.12935578276
sVname
p2056
VLiberty
p2057
sa(dp2058
Vcategory
p2059
Vneeds
p2060
sVpercentage
p2061
F1.0
sVid
p2062
VLove
p2063
sVsampling_error
p2064
F0.08846359068
sVname
p2065
VLove
p2066
sa(dp2067
Vcategory
p2068
Vneeds
p2069
sVpercentage
p2070
F1.0
sVid
p2071
VPracticality
p2072
sVsampling_error
p2073
F0.07721262648
sVname
p2074
VPracticality
p2075
sa(dp2076
Vcategory
p2077
Vneeds
p2078
sVpercentage
p2079
F0.6212324340797152
sVid
p2080
VSelf-expression
p2081
sVsampling_error
p2082
F0.07280486364000001
sVname
p2083
VSelf-expression
p2084
sa(dp2085
Vcategory
p2086
Vneeds
p2087
sVpercentage
p2088
F0.9542572783187359
sVid
p2089
VStability
p2090
sVsampling_error
p2091
F0.09463424663999999
sVname
p2092
VStability
p2093
sa(dp2094
Vcategory
p2095
Vneeds
p2096
sVpercentage
p2097
F0.8485886496650747
sVid
p2098
VStructure
p2099
sVsampling_error
p2100
F0.07096174792
sVname
p2101
VStructure
p2102
sasVid
p2103
VHarmony_parent
p2104
sVname
p2105
VHarmony
p2106
sasVid
p2107
Vneeds
p2108
sVname
p2109
VNeeds
p2110
sa(dp2111
Vchildren
p2112
(lp2113
(dp2114
Vcategory
p2115
Vvalues
p2116
sVpercentage
p2117
F1.0
sVchildren
p2118
(lp2119
(dp2120
Vcategory
p2121
Vvalues
p2122
sVpercentage
p2123
F0.009529979518605475
sVid
p2124
VConservation
p2125
sVsampling_error
p2126
F0.06219391688
sVname
p2127
VConservation
p2128
sa(dp2129
Vcategory
p2130
Vvalues
p2131
sVpercentage
p2132
F1.0
sVid
p2133
VOpenness to change
p2134
sVsampling_error
p2135
F0.05797777592
sVname
p2136
VOpenness to change
p2137
sa(dp2138
Vcategory
p2139
Vvalues
p2140
sVpercentage
p2141
F0.9457440433002533
sVid
p2142
VHedonism
p2143
sVsampling_error
p2144
F0.12004319512
sVname
p2145
VHedonism
p2146
sa(dp2147
Vcategory
p2148
Vvalues
p2149
sVpercentage
p2150
F0.02709574604203751
sVid
p2151
VSelf-enhancement
p2152
sVsampling_error
p2153
F0.0922758452
sVname
p2154
VSelf-enhancement
p2155
sa(dp2156
Vcategory
p2157
Vvalues
p2158
sVpercentage
p2159
F0.9461743237599545
sVid
p2160
VSelf-transcendence
p2161
sVsampling_error
p2162
F0.06908763668
sVname
p2163
VSelf-transcendence
p2164
sasVid
p2165
VOpenness to change_parent
p2166
sVname
p2167
VOpenness to change
p2168
sasVid
p2169
Vvalues
p2170
sVname
p2171
VValues
p2172
sasVid
p2173
Vr
p2174
sVname
p2175
Vroot
p2176
ssVid
p2177
V*UNKNOWN*
p2178
sVword_count
p2179
I4303
sVprocessed_lang
p2180
Ven
p2181
sa(dp2182
Vsource
p2183
V*UNKNOWN*
p2184
sVtree
p2185
(dp2186
Vchildren
p2187
(lp2188
(dp2189
Vchildren
p2190
(lp2191
(dp2192
Vcategory
p2193
Vpersonality
p2194
sVpercentage
p2195
F0.9804814831112668
sVchildren
p2196
(lp2197
(dp2198
Vcategory
p2199
Vpersonality
p2200
sVname
p2201
VOpenness
p2202
sVsampling_error
p2203
F0.052487699039999995
sVid
p2204
VOpenness
p2205
sVpercentage
p2206
F0.06879332145335483
sVchildren
p2207
(lp2208
(dp2209
Vcategory
p2210
Vpersonality
p2211
sVpercentage
p2212
F0.11350700105381421
sVid
p2213
VAdventurousness
p2214
sVsampling_error
p2215
F0.04599266024
sVname
p2216
VAdventurousness
p2217
sa(dp2218
Vcategory
p2219
Vpersonality
p2220
sVpercentage
p2221
F0.03636892011657518
sVid
p2222
VArtistic interests
p2223
sVsampling_error
p2224
F0.09413782544
sVname
p2225
VArtistic interests
p2226
sa(dp2227
Vcategory
p2228
Vpersonality
p2229
sVpercentage
p2230
F0.8703784131191965
sVid
p2231
VEmotionality
p2232
sVsampling_error
p2233
F0.04380357528
sVname
p2234
VEmotionality
p2235
sa(dp2236
Vcategory
p2237
Vpersonality
p2238
sVpercentage
p2239
F0.009965220496353386
sVid
p2240
VImagination
p2241
sVsampling_error
p2242
F0.0569133328
sVname
p2243
VImagination
p2244
sa(dp2245
Vcategory
p2246
Vpersonality
p2247
sVpercentage
p2248
F0.0890963920647448
sVid
p2249
VIntellect
p2250
sVsampling_error
p2251
F0.04966601512
sVname
p2252
VIntellect
p2253
sa(dp2254
Vcategory
p2255
Vpersonality
p2256
sVpercentage
p2257
F0.0778119320896001
sVid
p2258
VLiberalism
p2259
sVsampling_error
p2260
F0.07549539592
sVname
p2261
VAuthority-challenging
p2262
sasa(dp2263
Vcategory
p2264
Vpersonality
p2265
sVname
p2266
VConscientiousness
p2267
sVsampling_error
p2268
F0.06746632776
sVid
p2269
VConscientiousness
p2270
sVpercentage
p2271
F0.04838219470478771
sVchildren
p2272
(lp2273
(dp2274
Vcategory
p2275
Vpersonality
p2276
sVpercentage
p2277
F0.023891190120219057
sVid
p2278
VAchievement striving
p2279
sVsampling_error
p2280
F0.08958947776
sVname
p2281
VAchievement striving
p2282
sa(dp2283
Vcategory
p2284
Vpersonality
p2285
sVpercentage
p2286
F0.10292934573415435
sVid
p2287
VCautiousness
p2288
sVsampling_error
p2289
F0.08307692984
sVname
p2290
VCautiousness
p2291
sa(dp2292
Vcategory
p2293
Vpersonality
p2294
sVpercentage
p2295
F0.10923727230177999
sVid
p2296
VDutifulness
p2297
sVsampling_error
p2298
F0.05437285024
sVname
p2299
VDutifulness
p2300
sa(dp2301
Vcategory
p2302
Vpersonality
p2303
sVpercentage
p2304
F0.8805395378081464
sVid
p2305
VOrderliness
p2306
sVsampling_error
p2307
F0.06290114152
sVname
p2308
VOrderliness
p2309
sa(dp2310
Vcategory
p2311
Vpersonality
p2312
sVpercentage
p2313
F0.03096877420644178
sVid
p2314
VSelf-discipline
p2315
sVsampling_error
p2316
F0.042254536159999995
sVname
p2317
VSelf-discipline
p2318
sa(dp2319
Vcategory
p2320
Vpersonality
p2321
sVpercentage
p2322
F0.2765665742019633
sVid
p2323
VSelf-efficacy
p2324
sVsampling_error
p2325
F0.08236319048
sVname
p2326
VSelf-efficacy
p2327
sasa(dp2328
Vcategory
p2329
Vpersonality
p2330
sVname
p2331
VExtraversion
p2332
sVsampling_error
p2333
F0.05011748088
sVid
p2334
VExtraversion
p2335
sVpercentage
p2336
F0.9515100494977025
sVchildren
p2337
(lp2338
(dp2339
Vcategory
p2340
Vpersonality
p2341
sVpercentage
p2342
F0.11848835233577631
sVid
p2343
VActivity level
p2344
sVsampling_error
p2345
F0.06962235992
sVname
p2346
VActivity level
p2347
sa(dp2348
Vcategory
p2349
Vpersonality
p2350
sVpercentage
p2351
F0.9839270261079264
sVid
p2352
VAssertiveness
p2353
sVsampling_error
p2354
F0.07444738120000001
sVname
p2355
VAssertiveness
p2356
sa(dp2357
Vcategory
p2358
Vpersonality
p2359
sVpercentage
p2360
F0.8801503957288517
sVid
p2361
VCheerfulness
p2362
sVsampling_error
p2363
F0.09304020808
sVname
p2364
VCheerfulness
p2365
sa(dp2366
Vcategory
p2367
Vpersonality
p2368
sVpercentage
p2369
F0.6592765280121331
sVid
p2370
VExcitement-seeking
p2371
sVsampling_error
p2372
F0.07535120072
sVname
p2373
VExcitement-seeking
p2374
sa(dp2375
Vcategory
p2376
Vpersonality
p2377
sVpercentage
p2378
F0.8967726617053422
sVid
p2379
VFriendliness
p2380
sVsampling_error
p2381
F0.06757963448
sVname
p2382
VOutgoing
p2383
sa(dp2384
Vcategory
p2385
Vpersonality
p2386
sVpercentage
p2387
F0.8717544564739322
sVid
p2388
VGregariousness
p2389
sVsampling_error
p2390
F0.052453047999999995
sVname
p2391
VGregariousness
p2392
sasa(dp2393
Vcategory
p2394
Vpersonality
p2395
sVname
p2396
VAgreeableness
p2397
sVsampling_error
p2398
F0.08780672344
sVid
p2399
VAgreeableness
p2400
sVpercentage
p2401
F0.9804814831112668
sVchildren
p2402
(lp2403
(dp2404
Vcategory
p2405
Vpersonality
p2406
sVpercentage
p2407
F0.4645473085453721
sVid
p2408
VAltruism
p2409
sVsampling_error
p2410
F0.06328553944
sVname
p2411
VAltruism
p2412
sa(dp2413
Vcategory
p2414
Vpersonality
p2415
sVpercentage
p2416
F0.2188717874811826
sVid
p2417
VCooperation
p2418
sVsampling_error
p2419
F0.07263372584
sVname
p2420
VCooperation
p2421
sa(dp2422
Vcategory
p2423
Vpersonality
p2424
sVpercentage
p2425
F0.8669045119976244
sVid
p2426
VModesty
p2427
sVsampling_error
p2428
F0.04908094016
sVname
p2429
VModesty
p2430
sa(dp2431
Vcategory
p2432
Vpersonality
p2433
sVpercentage
p2434
F0.9076447246103901
sVid
p2435
VMorality
p2436
sVsampling_error
p2437
F0.056605172
sVname
p2438
VUncompromising
p2439
sa(dp2440
Vcategory
p2441
Vpersonality
p2442
sVpercentage
p2443
F0.7325964174908276
sVid
p2444
VSympathy
p2445
sVsampling_error
p2446
F0.08764287688
sVname
p2447
VSympathy
p2448
sa(dp2449
Vcategory
p2450
Vpersonality
p2451
sVpercentage
p2452
F0.6058132803835368
sVid
p2453
VTrust
p2454
sVsampling_error
p2455
F0.04853219752
sVname
p2456
VTrust
p2457
sasa(dp2458
Vcategory
p2459
Vpersonality
p2460
sVname
p2461
VEmotional range
p2462
sVsampling_error
p2463
F0.07959472551999999
sVid
p2464
VNeuroticism
p2465
sVpercentage
p2466
F0.8607777172485022
sVchildren
p2467
(lp2468
(dp2469
Vcategory
p2470
Vpersonality
p2471
sVpercentage
p2472
F0.9021578325285428
sVid
p2473
VAnger
p2474
sVsampling_error
p2475
F0.08397079031999999
sVname
p2476
VFiery
p2477
sa(dp2478
Vcategory
p2479
Vpersonality
p2480
sVpercentage
p2481
F0.8079115438783585
sVid
p2482
VAnxiety
p2483
sVsampling_error
p2484
F0.0488499988
sVname
p2485
VProne to worry
p2486
sa(dp2487
Vcategory
p2488
Vpersonality
p2489
sVpercentage
p2490
F0.8634139912654409
sVid
p2491
VDepression
p2492
sVsampling_error
p2493
F0.05128577632
sVname
p2494
VMelancholy
p2495
sa(dp2496
Vcategory
p2497
Vpersonality
p2498
sVpercentage
p2499
F0.8620346137927858
sVid
p2500
VImmoderation
p2501
sVsampling_error
p2502
F0.04787708968
sVname
p2503
VImmoderation
p2504
sa(dp2505
Vcategory
p2506
Vpersonality
p2507
sVpercentage
p2508
F0.1005133202493619
sVid
p2509
VSelf-consciousness
p2510
sVsampling_error
p2511
F0.050154924
sVname
p2512
VSelf-consciousness
p2513
sa(dp2514
Vcategory
p2515
Vpersonality
p2516
sVpercentage
p2517
F0.846856986804787
sVid
p2518
VVulnerability
p2519
sVsampling_error
p2520
F0.07572899831999999
sVname
p2521
VSusceptible to stress
p2522
sasasVid
p2523
VAgreeableness_parent
p2524
sVname
p2525
VAgreeableness
p2526
sasVid
p2527
Vpersonality
p2528
sVname
p2529
VBig 5
p2530
sa(dp2531
Vchildren
p2532
(lp2533
(dp2534
Vcategory
p2535
Vneeds
p2536
sVpercentage
p2537
F1.0
sVchildren
p2538
(lp2539
(dp2540
Vcategory
p2541
Vneeds
p2542
sVpercentage
p2543
F0.0315300273040892
sVid
p2544
VChallenge
p2545
sVsampling_error
p2546
F0.0749550356
sVname
p2547
VChallenge
p2548
sa(dp2549
Vcategory
p2550
Vneeds
p2551
sVpercentage
p2552
F0.8302777678992943
sVid
p2553
VCloseness
p2554
sVsampling_error
p2555
F0.07409146072
sVname
p2556
VCloseness
p2557
sa(dp2558
Vcategory
p2559
Vneeds
p2560
sVpercentage
p2561
F0.6063770437331633
sVid
p2562
VCuriosity
p2563
sVsampling_error
p2564
F0.10642618576
sVname
p2565
VCuriosity
p2566
sa(dp2567
Vcategory
p2568
Vneeds
p2569
sVpercentage
p2570
F0.640531165523861
sVid
p2571
VExcitement
p2572
sVsampling_error
p2573
F0.09593403944000001
sVname
p2574
VExcitement
p2575
sa(dp2576
Vcategory
p2577
Vneeds
p2578
sVpercentage
p2579
F1.0
sVid
p2580
VHarmony
p2581
sVsampling_error
p2582
F0.09596188056
sVname
p2583
VHarmony
p2584
sa(dp2585
Vcategory
p2586
Vneeds
p2587
sVpercentage
p2588
F0.2055832559571945
sVid
p2589
VIdeal
p2590
sVsampling_error
p2591
F0.08589850176
sVname
p2592
VIdeal
p2593
sa(dp2594
Vcategory
p2595
Vneeds
p2596
sVpercentage
p2597
F0.8154087519775098
sVid
p2598
VLiberty
p2599
sVsampling_error
p2600
F0.12835402016
sVname
p2601
VLiberty
p2602
sa(dp2603
Vcategory
p2604
Vneeds
p2605
sVpercentage
p2606
F0.9729331463327641
sVid
p2607
VLove
p2608
sVsampling_error
p2609
F0.08781110816
sVname
p2610
VLove
p2611
sa(dp2612
Vcategory
p2613
Vneeds
p2614
sVpercentage
p2615
F1.0
sVid
p2616
VPracticality
p2617
sVsampling_error
p2618
F0.0769492168
sVname
p2619
VPracticality
p2620
sa(dp2621
Vcategory
p2622
Vneeds
p2623
sVpercentage
p2624
F0.05727856472216008
sVid
p2625
VSelf-expression
p2626
sVsampling_error
p2627
F0.07261063295999999
sVname
p2628
VSelf-expression
p2629
sa(dp2630
Vcategory
p2631
Vneeds
p2632
sVpercentage
p2633
F0.6373275489127317
sVid
p2634
VStability
p2635
sVsampling_error
p2636
F0.09441698272
sVname
p2637
VStability
p2638
sa(dp2639
Vcategory
p2640
Vneeds
p2641
sVpercentage
p2642
F0.17911376129308781
sVid
p2643
VStructure
p2644
sVsampling_error
p2645
F0.07068293176
sVname
p2646
VStructure
p2647
sasVid
p2648
VHarmony_parent
p2649
sVname
p2650
VHarmony
p2651
sasVid
p2652
Vneeds
p2653
sVname
p2654
VNeeds
p2655
sa(dp2656
Vchildren
p2657
(lp2658
(dp2659
Vcategory
p2660
Vvalues
p2661
sVpercentage
p2662
F0.04151238181635021
sVchildren
p2663
(lp2664
(dp2665
Vcategory
p2666
Vvalues
p2667
sVpercentage
p2668
F0.04151238181635021
sVid
p2669
VConservation
p2670
sVsampling_error
p2671
F0.06219634912
sVname
p2672
VConservation
p2673
sa(dp2674
Vcategory
p2675
Vvalues
p2676
sVpercentage
p2677
F0.9110912066573799
sVid
p2678
VOpenness to change
p2679
sVsampling_error
p2680
F0.05758988744
sVname
p2681
VOpenness to change
p2682
sa(dp2683
Vcategory
p2684
Vvalues
p2685
sVpercentage
p2686
F0.8242657482265806
sVid
p2687
VHedonism
p2688
sVsampling_error
p2689
F0.11867886752000001
sVname
p2690
VHedonism
p2691
sa(dp2692
Vcategory
p2693
Vvalues
p2694
sVpercentage
p2695
F0.15834775388351774
sVid
p2696
VSelf-enhancement
p2697
sVsampling_error
p2698
F0.09131525032
sVname
p2699
VSelf-enhancement
p2700
sa(dp2701
Vcategory
p2702
Vvalues
p2703
sVpercentage
p2704
F0.8613206890638674
sVid
p2705
VSelf-transcendence
p2706
sVsampling_error
p2707
F0.06847857376
sVname
p2708
VSelf-transcendence
p2709
sasVid
p2710
VConservation_parent
p2711
sVname
p2712
VConservation
p2713
sasVid
p2714
Vvalues
p2715
sVname
p2716
VValues
p2717
sasVid
p2718
Vr
p2719
sVname
p2720
Vroot
p2721
ssVid
p2722
V*UNKNOWN*
p2723
sVword_count
p2724
I4526
sVprocessed_lang
p2725
Ven
p2726
sa(dp2727
Vsource
p2728
V*UNKNOWN*
p2729
sVtree
p2730
(dp2731
Vchildren
p2732
(lp2733
(dp2734
Vchildren
p2735
(lp2736
(dp2737
Vcategory
p2738
Vpersonality
p2739
sVpercentage
p2740
F1.0
sVchildren
p2741
(lp2742
(dp2743
Vcategory
p2744
Vpersonality
p2745
sVname
p2746
VOpenness
p2747
sVsampling_error
p2748
F0.05114356232
sVid
p2749
VOpenness
p2750
sVpercentage
p2751
F0.05518578260741454
sVchildren
p2752
(lp2753
(dp2754
Vcategory
p2755
Vpersonality
p2756
sVpercentage
p2757
F0.1459954985665037
sVid
p2758
VAdventurousness
p2759
sVsampling_error
p2760
F0.045105134559999996
sVname
p2761
VAdventurousness
p2762
sa(dp2763
Vcategory
p2764
Vpersonality
p2765
sVpercentage
p2766
F0.20198895011038362
sVid
p2767
VArtistic interests
p2768
sVsampling_error
p2769
F0.09275023632
sVname
p2770
VArtistic interests
p2771
sa(dp2772
Vcategory
p2773
Vpersonality
p2774
sVpercentage
p2775
F0.8226943563603741
sVid
p2776
VEmotionality
p2777
sVsampling_error
p2778
F0.04311252216
sVname
p2779
VEmotionality
p2780
sa(dp2781
Vcategory
p2782
Vpersonality
p2783
sVpercentage
p2784
F0.00995780844505959
sVid
p2785
VImagination
p2786
sVsampling_error
p2787
F0.056209715199999996
sVname
p2788
VImagination
p2789
sa(dp2790
Vcategory
p2791
Vpersonality
p2792
sVpercentage
p2793
F0.08679350482741632
sVid
p2794
VIntellect
p2795
sVsampling_error
p2796
F0.048934876960000005
sVname
p2797
VIntellect
p2798
sa(dp2799
Vcategory
p2800
Vpersonality
p2801
sVpercentage
p2802
F0.0217413736877395
sVid
p2803
VLiberalism
p2804
sVsampling_error
p2805
F0.07450018175999999
sVname
p2806
VAuthority-challenging
p2807
sasa(dp2808
Vcategory
p2809
Vpersonality
p2810
sVname
p2811
VConscientiousness
p2812
sVsampling_error
p2813
F0.06672835496
sVid
p2814
VConscientiousness
p2815
sVpercentage
p2816
F0.03264843118166811
sVchildren
p2817
(lp2818
(dp2819
Vcategory
p2820
Vpersonality
p2821
sVpercentage
p2822
F0.011656005948831535
sVid
p2823
VAchievement striving
p2824
sVsampling_error
p2825
F0.08799189184
sVname
p2826
VAchievement striving
p2827
sa(dp2828
Vcategory
p2829
Vpersonality
p2830
sVpercentage
p2831
F0.14001818205299085
sVid
p2832
VCautiousness
p2833
sVsampling_error
p2834
F0.08200600216000001
sVname
p2835
VCautiousness
p2836
sa(dp2837
Vcategory
p2838
Vpersonality
p2839
sVpercentage
p2840
F0.24329417307506646
sVid
p2841
VDutifulness
p2842
sVsampling_error
p2843
F0.05322979656
sVname
p2844
VDutifulness
p2845
sa(dp2846
Vcategory
p2847
Vpersonality
p2848
sVpercentage
p2849
F0.6245859098412787
sVid
p2850
VOrderliness
p2851
sVsampling_error
p2852
F0.06217298336
sVname
p2853
VOrderliness
p2854
sa(dp2855
Vcategory
p2856
Vpersonality
p2857
sVpercentage
p2858
F0.03484090661292162
sVid
p2859
VSelf-discipline
p2860
sVsampling_error
p2861
F0.04271533104
sVname
p2862
VSelf-discipline
p2863
sa(dp2864
Vcategory
p2865
Vpersonality
p2866
sVpercentage
p2867
F0.30945397210461956
sVid
p2868
VSelf-efficacy
p2869
sVsampling_error
p2870
F0.08195712864
sVname
p2871
VSelf-efficacy
p2872
sasa(dp2873
Vcategory
p2874
Vpersonality
p2875
sVname
p2876
VExtraversion
p2877
sVsampling_error
p2878
F0.04916191424
sVid
p2879
VExtraversion
p2880
sVpercentage
p2881
F0.9800890393890692
sVchildren
p2882
(lp2883
(dp2884
Vcategory
p2885
Vpersonality
p2886
sVpercentage
p2887
F0.5345952700230644
sVid
p2888
VActivity level
p2889
sVsampling_error
p2890
F0.06833403712
sVname
p2891
VActivity level
p2892
sa(dp2893
Vcategory
p2894
Vpersonality
p2895
sVpercentage
p2896
F0.9813814641252363
sVid
p2897
VAssertiveness
p2898
sVsampling_error
p2899
F0.0729664068
sVname
p2900
VAssertiveness
p2901
sa(dp2902
Vcategory
p2903
Vpersonality
p2904
sVpercentage
p2905
F0.9540448170331787
sVid
p2906
VCheerfulness
p2907
sVsampling_error
p2908
F0.09110187784
sVname
p2909
VCheerfulness
p2910
sa(dp2911
Vcategory
p2912
Vpersonality
p2913
sVpercentage
p2914
F0.5874816549668304
sVid
p2915
VExcitement-seeking
p2916
sVsampling_error
p2917
F0.07565860144
sVname
p2918
VExcitement-seeking
p2919
sa(dp2920
Vcategory
p2921
Vpersonality
p2922
sVpercentage
p2923
F0.9834302521379301
sVid
p2924
VFriendliness
p2925
sVsampling_error
p2926
F0.06694291152000001
sVname
p2927
VOutgoing
p2928
sa(dp2929
Vcategory
p2930
Vpersonality
p2931
sVpercentage
p2932
F0.9707148120557475
sVid
p2933
VGregariousness
p2934
sVsampling_error
p2935
F0.05256327296
sVname
p2936
VGregariousness
p2937
sasa(dp2938
Vcategory
p2939
Vpersonality
p2940
sVname
p2941
VAgreeableness
p2942
sVsampling_error
p2943
F0.08649289824
sVid
p2944
VAgreeableness
p2945
sVpercentage
p2946
F1.0
sVchildren
p2947
(lp2948
(dp2949
Vcategory
p2950
Vpersonality
p2951
sVpercentage
p2952
F0.8185126387354025
sVid
p2953
VAltruism
p2954
sVsampling_error
p2955
F0.06259324944
sVname
p2956
VAltruism
p2957
sa(dp2958
Vcategory
p2959
Vpersonality
p2960
sVpercentage
p2961
F0.33678269955267454
sVid
p2962
VCooperation
p2963
sVsampling_error
p2964
F0.07208696864
sVname
p2965
VCooperation
p2966
sa(dp2967
Vcategory
p2968
Vpersonality
p2969
sVpercentage
p2970
F0.9154533037139703
sVid
p2971
VModesty
p2972
sVsampling_error
p2973
F0.04788455088
sVname
p2974
VModesty
p2975
sa(dp2976
Vcategory
p2977
Vpersonality
p2978
sVpercentage
p2979
F0.9711690847699134
sVid
p2980
VMorality
p2981
sVsampling_error
p2982
F0.05564603264
sVname
p2983
VUncompromising
p2984
sa(dp2985
Vcategory
p2986
Vpersonality
p2987
sVpercentage
p2988
F0.7814995949053893
sVid
p2989
VSympathy
p2990
sVsampling_error
p2991
F0.08681266616
sVname
p2992
VSympathy
p2993
sa(dp2994
Vcategory
p2995
Vpersonality
p2996
sVpercentage
p2997
F0.8289082253064672
sVid
p2998
VTrust
p2999
sVsampling_error
p3000
F0.047982058880000004
sVname
p3001
VTrust
p3002
sasa(dp3003
Vcategory
p3004
Vpersonality
p3005
sVname
p3006
VEmotional range
p3007
sVsampling_error
p3008
F0.07844275224
sVid
p3009
VNeuroticism
p3010
sVpercentage
p3011
F0.7739880786840739
sVchildren
p3012
(lp3013
(dp3014
Vcategory
p3015
Vpersonality
p3016
sVpercentage
p3017
F0.8891157282082738
sVid
p3018
VAnger
p3019
sVsampling_error
p3020
F0.08255633192
sVname
p3021
VFiery
p3022
sa(dp3023
Vcategory
p3024
Vpersonality
p3025
sVpercentage
p3026
F0.7079369891010986
sVid
p3027
VAnxiety
p3028
sVsampling_error
p3029
F0.047649067919999996
sVname
p3030
VProne to worry
p3031
sa(dp3032
Vcategory
p3033
Vpersonality
p3034
sVpercentage
p3035
F0.8711376173737857
sVid
p3036
VDepression
p3037
sVsampling_error
p3038
F0.05014891104
sVname
p3039
VMelancholy
p3040
sa(dp3041
Vcategory
p3042
Vpersonality
p3043
sVpercentage
p3044
F0.7905018027054478
sVid
p3045
VImmoderation
p3046
sVsampling_error
p3047
F0.04734827096
sVname
p3048
VImmoderation
p3049
sa(dp3050
Vcategory
p3051
Vpersonality
p3052
sVpercentage
p3053
F0.055891977780863536
sVid
p3054
VSelf-consciousness
p3055
sVsampling_error
p3056
F0.04898957144
sVname
p3057
VSelf-consciousness
p3058
sa(dp3059
Vcategory
p3060
Vpersonality
p3061
sVpercentage
p3062
F0.7018695369262573
sVid
p3063
VVulnerability
p3064
sVsampling_error
p3065
F0.07358257928
sVname
p3066
VSusceptible to stress
p3067
sasasVid
p3068
VAgreeableness_parent
p3069
sVname
p3070
VAgreeableness
p3071
sasVid
p3072
Vpersonality
p3073
sVname
p3074
VBig 5
p3075
sa(dp3076
Vchildren
p3077
(lp3078
(dp3079
Vcategory
p3080
Vneeds
p3081
sVpercentage
p3082
F1.0
sVchildren
p3083
(lp3084
(dp3085
Vcategory
p3086
Vneeds
p3087
sVpercentage
p3088
F0.01646149707385351
sVid
p3089
VChallenge
p3090
sVsampling_error
p3091
F0.07345138896
sVname
p3092
VChallenge
p3093
sa(dp3094
Vcategory
p3095
Vneeds
p3096
sVpercentage
p3097
F0.7263155852386157
sVid
p3098
VCloseness
p3099
sVsampling_error
p3100
F0.07277339776000001
sVname
p3101
VCloseness
p3102
sa(dp3103
Vcategory
p3104
Vneeds
p3105
sVpercentage
p3106
F0.4498441849870074
sVid
p3107
VCuriosity
p3108
sVsampling_error
p3109
F0.1042037844
sVname
p3110
VCuriosity
p3111
sa(dp3112
Vcategory
p3113
Vneeds
p3114
sVpercentage
p3115
F0.6025683262806011
sVid
p3116
VExcitement
p3117
sVsampling_error
p3118
F0.0940246972
sVname
p3119
VExcitement
p3120
sa(dp3121
Vcategory
p3122
Vneeds
p3123
sVpercentage
p3124
F1.0
sVid
p3125
VHarmony
p3126
sVsampling_error
p3127
F0.09320441552
sVname
p3128
VHarmony
p3129
sa(dp3130
Vcategory
p3131
Vneeds
p3132
sVpercentage
p3133
F0.07037308413220067
sVid
p3134
VIdeal
p3135
sVsampling_error
p3136
F0.08433518632
sVname
p3137
VIdeal
p3138
sa(dp3139
Vcategory
p3140
Vneeds
p3141
sVpercentage
p3142
F0.8298410596526843
sVid
p3143
VLiberty
p3144
sVsampling_error
p3145
F0.12563180295999998
sVname
p3146
VLiberty
p3147
sa(dp3148
Vcategory
p3149
Vneeds
p3150
sVpercentage
p3151
F0.9831210969303952
sVid
p3152
VLove
p3153
sVsampling_error
p3154
F0.08517887552
sVname
p3155
VLove
p3156
sa(dp3157
Vcategory
p3158
Vneeds
p3159
sVpercentage
p3160
F1.0
sVid
p3161
VPracticality
p3162
sVsampling_error
p3163
F0.07589951248
sVname
p3164
VPracticality
p3165
sa(dp3166
Vcategory
p3167
Vneeds
p3168
sVpercentage
p3169
F0.05049449412349241
sVid
p3170
VSelf-expression
p3171
sVsampling_error
p3172
F0.07159822744
sVname
p3173
VSelf-expression
p3174
sa(dp3175
Vcategory
p3176
Vneeds
p3177
sVpercentage
p3178
F0.4526634424381791
sVid
p3179
VStability
p3180
sVsampling_error
p3181
F0.09294280296
sVname
p3182
VStability
p3183
sa(dp3184
Vcategory
p3185
Vneeds
p3186
sVpercentage
p3187
F0.07439662392401018
sVid
p3188
VStructure
p3189
sVsampling_error
p3190
F0.06970236656
sVname
p3191
VStructure
p3192
sasVid
p3193
VHarmony_parent
p3194
sVname
p3195
VHarmony
p3196
sasVid
p3197
Vneeds
p3198
sVname
p3199
VNeeds
p3200
sa(dp3201
Vchildren
p3202
(lp3203
(dp3204
Vcategory
p3205
Vvalues
p3206
sVpercentage
p3207
F0.972621435552998
sVchildren
p3208
(lp3209
(dp3210
Vcategory
p3211
Vvalues
p3212
sVpercentage
p3213
F0.08280848419744956
sVid
p3214
VConservation
p3215
sVsampling_error
p3216
F0.06249830944
sVname
p3217
VConservation
p3218
sa(dp3219
Vcategory
p3220
Vvalues
p3221
sVpercentage
p3222
F0.972621435552998
sVid
p3223
VOpenness to change
p3224
sVsampling_error
p3225
F0.05716582048
sVname
p3226
VOpenness to change
p3227
sa(dp3228
Vcategory
p3229
Vvalues
p3230
sVpercentage
p3231
F0.9353499969095358
sVid
p3232
VHedonism
p3233
sVsampling_error
p3234
F0.11649792215999999
sVname
p3235
VHedonism
p3236
sa(dp3237
Vcategory
p3238
Vvalues
p3239
sVpercentage
p3240
F0.20975127797126158
sVid
p3241
VSelf-enhancement
p3242
sVsampling_error
p3243
F0.08904316432
sVname
p3244
VSelf-enhancement
p3245
sa(dp3246
Vcategory
p3247
Vvalues
p3248
sVpercentage
p3249
F0.5582376251303307
sVid
p3250
VSelf-transcendence
p3251
sVsampling_error
p3252
F0.06720996296
sVname
p3253
VSelf-transcendence
p3254
sasVid
p3255
VOpenness to change_parent
p3256
sVname
p3257
VOpenness to change
p3258
sasVid
p3259
Vvalues
p3260
sVname
p3261
VValues
p3262
sasVid
p3263
Vr
p3264
sVname
p3265
Vroot
p3266
ssVid
p3267
V*UNKNOWN*
p3268
sVword_count
p3269
I5238
sVprocessed_lang
p3270
Ven
p3271
sa(dp3272
Vsource
p3273
V*UNKNOWN*
p3274
sVtree
p3275
(dp3276
Vchildren
p3277
(lp3278
(dp3279
Vchildren
p3280
(lp3281
(dp3282
Vcategory
p3283
Vpersonality
p3284
sVpercentage
p3285
F0.013978896549074724
sVchildren
p3286
(lp3287
(dp3288
Vcategory
p3289
Vpersonality
p3290
sVname
p3291
VOpenness
p3292
sVsampling_error
p3293
F0.0507927518
sVid
p3294
VOpenness
p3295
sVpercentage
p3296
F0.042611911984133374
sVchildren
p3297
(lp3298
(dp3299
Vcategory
p3300
Vpersonality
p3301
sVpercentage
p3302
F0.06503721233676725
sVid
p3303
VAdventurousness
p3304
sVsampling_error
p3305
F0.04497719972
sVname
p3306
VAdventurousness
p3307
sa(dp3308
Vcategory
p3309
Vpersonality
p3310
sVpercentage
p3311
F0.02287947420260661
sVid
p3312
VArtistic interests
p3313
sVsampling_error
p3314
F0.09117898736
sVname
p3315
VArtistic interests
p3316
sa(dp3317
Vcategory
p3318
Vpersonality
p3319
sVpercentage
p3320
F0.8983496202808963
sVid
p3321
VEmotionality
p3322
sVsampling_error
p3323
F0.042102897
sVname
p3324
VEmotionality
p3325
sa(dp3326
Vcategory
p3327
Vpersonality
p3328
sVpercentage
p3329
F0.01765669183610649
sVid
p3330
VImagination
p3331
sVsampling_error
p3332
F0.05571021184
sVname
p3333
VImagination
p3334
sa(dp3335
Vcategory
p3336
Vpersonality
p3337
sVpercentage
p3338
F0.06780339264203575
sVid
p3339
VIntellect
p3340
sVsampling_error
p3341
F0.04847387916
sVname
p3342
VIntellect
p3343
sa(dp3344
Vcategory
p3345
Vpersonality
p3346
sVpercentage
p3347
F0.05525586852205778
sVid
p3348
VLiberalism
p3349
sVsampling_error
p3350
F0.07442220664
sVname
p3351
VAuthority-challenging
p3352
sasa(dp3353
Vcategory
p3354
Vpersonality
p3355
sVname
p3356
VConscientiousness
p3357
sVsampling_error
p3358
F0.06510459887999999
sVid
p3359
VConscientiousness
p3360
sVpercentage
p3361
F0.013978896549074724
sVchildren
p3362
(lp3363
(dp3364
Vcategory
p3365
Vpersonality
p3366
sVpercentage
p3367
F0.009813720405268527
sVid
p3368
VAchievement striving
p3369
sVsampling_error
p3370
F0.0876647138
sVname
p3371
VAchievement striving
p3372
sa(dp3373
Vcategory
p3374
Vpersonality
p3375
sVpercentage
p3376
F0.057877786223788495
sVid
p3377
VCautiousness
p3378
sVsampling_error
p3379
F0.0818640414
sVname
p3380
VCautiousness
p3381
sa(dp3382
Vcategory
p3383
Vpersonality
p3384
sVpercentage
p3385
F0.053297291187078266
sVid
p3386
VDutifulness
p3387
sVsampling_error
p3388
F0.05385484088
sVname
p3389
VDutifulness
p3390
sa(dp3391
Vcategory
p3392
Vpersonality
p3393
sVpercentage
p3394
F0.7709398353941103
sVid
p3395
VOrderliness
p3396
sVsampling_error
p3397
F0.061819836520000004
sVname
p3398
VOrderliness
p3399
sa(dp3400
Vcategory
p3401
Vpersonality
p3402
sVpercentage
p3403
F0.009874817559929715
sVid
p3404
VSelf-discipline
p3405
sVsampling_error
p3406
F0.041994594079999996
sVname
p3407
VSelf-discipline
p3408
sa(dp3409
Vcategory
p3410
Vpersonality
p3411
sVpercentage
p3412
F0.12295509205054556
sVid
p3413
VSelf-efficacy
p3414
sVsampling_error
p3415
F0.08096265636
sVname
p3416
VSelf-efficacy
p3417
sasa(dp3418
Vcategory
p3419
Vpersonality
p3420
sVname
p3421
VExtraversion
p3422
sVsampling_error
p3423
F0.04880633628
sVid
p3424
VExtraversion
p3425
sVpercentage
p3426
F0.9666645063311937
sVchildren
p3427
(lp3428
(dp3429
Vcategory
p3430
Vpersonality
p3431
sVpercentage
p3432
F0.09300345801789281
sVid
p3433
VActivity level
p3434
sVsampling_error
p3435
F0.06807688692
sVname
p3436
VActivity level
p3437
sa(dp3438
Vcategory
p3439
Vpersonality
p3440
sVpercentage
p3441
F0.9876983603235371
sVid
p3442
VAssertiveness
p3443
sVsampling_error
p3444
F0.07208963355999999
sVname
p3445
VAssertiveness
p3446
sa(dp3447
Vcategory
p3448
Vpersonality
p3449
sVpercentage
p3450
F0.9098973439699176
sVid
p3451
VCheerfulness
p3452
sVsampling_error
p3453
F0.09019877576
sVname
p3454
VCheerfulness
p3455
sa(dp3456
Vcategory
p3457
Vpersonality
p3458
sVpercentage
p3459
F0.8386928739419812
sVid
p3460
VExcitement-seeking
p3461
sVsampling_error
p3462
F0.07445636476
sVname
p3463
VExcitement-seeking
p3464
sa(dp3465
Vcategory
p3466
Vpersonality
p3467
sVpercentage
p3468
F0.9026163064550214
sVid
p3469
VFriendliness
p3470
sVsampling_error
p3471
F0.06671762188
sVname
p3472
VOutgoing
p3473
sa(dp3474
Vcategory
p3475
Vpersonality
p3476
sVpercentage
p3477
F0.8852421379601548
sVid
p3478
VGregariousness
p3479
sVsampling_error
p3480
F0.05180805684
sVname
p3481
VGregariousness
p3482
sasa(dp3483
Vcategory
p3484
Vpersonality
p3485
sVname
p3486
VAgreeableness
p3487
sVsampling_error
p3488
F0.08607351456000001
sVid
p3489
VAgreeableness
p3490
sVpercentage
p3491
F0.9714367175574552
sVchildren
p3492
(lp3493
(dp3494
Vcategory
p3495
Vpersonality
p3496
sVpercentage
p3497
F0.2787357708430617
sVid
p3498
VAltruism
p3499
sVsampling_error
p3500
F0.06204194104
sVname
p3501
VAltruism
p3502
sa(dp3503
Vcategory
p3504
Vpersonality
p3505
sVpercentage
p3506
F0.1032898544669714
sVid
p3507
VCooperation
p3508
sVsampling_error
p3509
F0.07204343492
sVname
p3510
VCooperation
p3511
sa(dp3512
Vcategory
p3513
Vpersonality
p3514
sVpercentage
p3515
F0.734538407031907
sVid
p3516
VModesty
p3517
sVsampling_error
p3518
F0.047483982279999996
sVname
p3519
VModesty
p3520
sa(dp3521
Vcategory
p3522
Vpersonality
p3523
sVpercentage
p3524
F0.8148924136462652
sVid
p3525
VMorality
p3526
sVsampling_error
p3527
F0.05540023084
sVname
p3528
VUncompromising
p3529
sa(dp3530
Vcategory
p3531
Vpersonality
p3532
sVpercentage
p3533
F0.5667996421604067
sVid
p3534
VSympathy
p3535
sVsampling_error
p3536
F0.0860972312
sVname
p3537
VSympathy
p3538
sa(dp3539
Vcategory
p3540
Vpersonality
p3541
sVpercentage
p3542
F0.3764826457862985
sVid
p3543
VTrust
p3544
sVsampling_error
p3545
F0.04853326912
sVname
p3546
VTrust
p3547
sasa(dp3548
Vcategory
p3549
Vpersonality
p3550
sVname
p3551
VEmotional range
p3552
sVsampling_error
p3553
F0.07849788276
sVid
p3554
VNeuroticism
p3555
sVpercentage
p3556
F0.8974019092210118
sVchildren
p3557
(lp3558
(dp3559
Vcategory
p3560
Vpersonality
p3561
sVpercentage
p3562
F0.9438165120148412
sVid
p3563
VAnger
p3564
sVsampling_error
p3565
F0.08243018908
sVname
p3566
VFiery
p3567
sa(dp3568
Vcategory
p3569
Vpersonality
p3570
sVpercentage
p3571
F0.8384156031094832
sVid
p3572
VAnxiety
p3573
sVsampling_error
p3574
F0.04755206748
sVname
p3575
VProne to worry
p3576
sa(dp3577
Vcategory
p3578
Vpersonality
p3579
sVpercentage
p3580
F0.9649074258150043
sVid
p3581
VDepression
p3582
sVsampling_error
p3583
F0.049640316999999996
sVname
p3584
VMelancholy
p3585
sa(dp3586
Vcategory
p3587
Vpersonality
p3588
sVpercentage
p3589
F0.9202481676578038
sVid
p3590
VImmoderation
p3591
sVsampling_error
p3592
F0.04706145556
sVname
p3593
VImmoderation
p3594
sa(dp3595
Vcategory
p3596
Vpersonality
p3597
sVpercentage
p3598
F0.16745618575072693
sVid
p3599
VSelf-consciousness
p3600
sVsampling_error
p3601
F0.048709190640000004
sVname
p3602
VSelf-consciousness
p3603
sa(dp3604
Vcategory
p3605
Vpersonality
p3606
sVpercentage
p3607
F0.8414238024164663
sVid
p3608
VVulnerability
p3609
sVsampling_error
p3610
F0.07375016048
sVname
p3611
VSusceptible to stress
p3612
sasasVid
p3613
VConscientiousness_parent
p3614
sVname
p3615
VConscientiousness
p3616
sasVid
p3617
Vpersonality
p3618
sVname
p3619
VBig 5
p3620
sa(dp3621
Vchildren
p3622
(lp3623
(dp3624
Vcategory
p3625
Vneeds
p3626
sVpercentage
p3627
F1.0
sVchildren
p3628
(lp3629
(dp3630
Vcategory
p3631
Vneeds
p3632
sVpercentage
p3633
F0.02310779544602408
sVid
p3634
VChallenge
p3635
sVsampling_error
p3636
F0.07324358096
sVname
p3637
VChallenge
p3638
sa(dp3639
Vcategory
p3640
Vneeds
p3641
sVpercentage
p3642
F0.8813027745088077
sVid
p3643
VCloseness
p3644
sVsampling_error
p3645
F0.07254683599999999
sVname
p3646
VCloseness
p3647
sa(dp3648
Vcategory
p3649
Vneeds
p3650
sVpercentage
p3651
F0.7349834896692139
sVid
p3652
VCuriosity
p3653
sVsampling_error
p3654
F0.10224826068
sVname
p3655
VCuriosity
p3656
sa(dp3657
Vcategory
p3658
Vneeds
p3659
sVpercentage
p3660
F0.8124884619192173
sVid
p3661
VExcitement
p3662
sVsampling_error
p3663
F0.09283795784
sVname
p3664
VExcitement
p3665
sa(dp3666
Vcategory
p3667
Vneeds
p3668
sVpercentage
p3669
F1.0
sVid
p3670
VHarmony
p3671
sVsampling_error
p3672
F0.09239202856
sVname
p3673
VHarmony
p3674
sa(dp3675
Vcategory
p3676
Vneeds
p3677
sVpercentage
p3678
F0.3436661822642524
sVid
p3679
VIdeal
p3680
sVsampling_error
p3681
F0.08369362572
sVname
p3682
VIdeal
p3683
sa(dp3684
Vcategory
p3685
Vneeds
p3686
sVpercentage
p3687
F0.9025149343567426
sVid
p3688
VLiberty
p3689
sVsampling_error
p3690
F0.12450059136
sVname
p3691
VLiberty
p3692
sa(dp3693
Vcategory
p3694
Vneeds
p3695
sVpercentage
p3696
F0.9850660179482313
sVid
p3697
VLove
p3698
sVsampling_error
p3699
F0.08473589472
sVname
p3700
VLove
p3701
sa(dp3702
Vcategory
p3703
Vneeds
p3704
sVpercentage
p3705
F1.0
sVid
p3706
VPracticality
p3707
sVsampling_error
p3708
F0.07500552148
sVname
p3709
VPracticality
p3710
sa(dp3711
Vcategory
p3712
Vneeds
p3713
sVpercentage
p3714
F0.13697426372195382
sVid
p3715
VSelf-expression
p3716
sVsampling_error
p3717
F0.07151834068
sVname
p3718
VSelf-expression
p3719
sa(dp3720
Vcategory
p3721
Vneeds
p3722
sVpercentage
p3723
F0.7593874367565648
sVid
p3724
VStability
p3725
sVsampling_error
p3726
F0.09155642728
sVname
p3727
VStability
p3728
sa(dp3729
Vcategory
p3730
Vneeds
p3731
sVpercentage
p3732
F0.2806055465089238
sVid
p3733
VStructure
p3734
sVsampling_error
p3735
F0.06943670508000001
sVname
p3736
VStructure
p3737
sasVid
p3738
VHarmony_parent
p3739
sVname
p3740
VHarmony
p3741
sasVid
p3742
Vneeds
p3743
sVname
p3744
VNeeds
p3745
sa(dp3746
Vchildren
p3747
(lp3748
(dp3749
Vcategory
p3750
Vvalues
p3751
sVpercentage
p3752
F0.012001108985685193
sVchildren
p3753
(lp3754
(dp3755
Vcategory
p3756
Vvalues
p3757
sVpercentage
p3758
F0.012001108985685193
sVid
p3759
VConservation
p3760
sVsampling_error
p3761
F0.06241661296
sVname
p3762
VConservation
p3763
sa(dp3764
Vcategory
p3765
Vvalues
p3766
sVpercentage
p3767
F0.9699123412158845
sVid
p3768
VOpenness to change
p3769
sVsampling_error
p3770
F0.05665481872
sVname
p3771
VOpenness to change
p3772
sa(dp3773
Vcategory
p3774
Vvalues
p3775
sVpercentage
p3776
F0.9126265451056397
sVid
p3777
VHedonism
p3778
sVsampling_error
p3779
F0.11448697444
sVname
p3780
VHedonism
p3781
sa(dp3782
Vcategory
p3783
Vvalues
p3784
sVpercentage
p3785
F0.1961379336291325
sVid
p3786
VSelf-enhancement
p3787
sVsampling_error
p3788
F0.0881265932
sVname
p3789
VSelf-enhancement
p3790
sa(dp3791
Vcategory
p3792
Vvalues
p3793
sVpercentage
p3794
F0.8861279775519058
sVid
p3795
VSelf-transcendence
p3796
sVsampling_error
p3797
F0.06615605212
sVname
p3798
VSelf-transcendence
p3799
sasVid
p3800
VConservation_parent
p3801
sVname
p3802
VConservation
p3803
sasVid
p3804
Vvalues
p3805
sVname
p3806
VValues
p3807
sasVid
p3808
Vr
p3809
sVname
p3810
Vroot
p3811
ssVid
p3812
V*UNKNOWN*
p3813
sVword_count
p3814
I6049
sVprocessed_lang
p3815
Ven
p3816
sa(dp3817
Vsource
p3818
V*UNKNOWN*
p3819
sVtree
p3820
(dp3821
Vchildren
p3822
(lp3823
(dp3824
Vchildren
p3825
(lp3826
(dp3827
Vcategory
p3828
Vpersonality
p3829
sVpercentage
p3830
F0.9800215360220187
sVchildren
p3831
(lp3832
(dp3833
Vcategory
p3834
Vpersonality
p3835
sVname
p3836
VOpenness
p3837
sVsampling_error
p3838
F0.05109484832
sVid
p3839
VOpenness
p3840
sVpercentage
p3841
F0.04881144961934881
sVchildren
p3842
(lp3843
(dp3844
Vcategory
p3845
Vpersonality
p3846
sVpercentage
p3847
F0.07162733959107621
sVid
p3848
VAdventurousness
p3849
sVsampling_error
p3850
F0.045101195919999996
sVname
p3851
VAdventurousness
p3852
sa(dp3853
Vcategory
p3854
Vpersonality
p3855
sVpercentage
p3856
F0.04679026483808295
sVid
p3857
VArtistic interests
p3858
sVsampling_error
p3859
F0.09261077044
sVname
p3860
VArtistic interests
p3861
sa(dp3862
Vcategory
p3863
Vpersonality
p3864
sVpercentage
p3865
F0.9203298149487468
sVid
p3866
VEmotionality
p3867
sVsampling_error
p3868
F0.04294953776
sVname
p3869
VEmotionality
p3870
sa(dp3871
Vcategory
p3872
Vpersonality
p3873
sVpercentage
p3874
F0.009621432151531866
sVid
p3875
VImagination
p3876
sVsampling_error
p3877
F0.0562834656
sVname
p3878
VImagination
p3879
sa(dp3880
Vcategory
p3881
Vpersonality
p3882
sVpercentage
p3883
F0.03704541267192183
sVid
p3884
VIntellect
p3885
sVsampling_error
p3886
F0.04896371596
sVname
p3887
VIntellect
p3888
sa(dp3889
Vcategory
p3890
Vpersonality
p3891
sVpercentage
p3892
F0.08576646813340137
sVid
p3893
VLiberalism
p3894
sVsampling_error
p3895
F0.07462848195999999
sVname
p3896
VAuthority-challenging
p3897
sasa(dp3898
Vcategory
p3899
Vpersonality
p3900
sVname
p3901
VConscientiousness
p3902
sVsampling_error
p3903
F0.06667724359999999
sVid
p3904
VConscientiousness
p3905
sVpercentage
p3906
F0.047738915683748315
sVchildren
p3907
(lp3908
(dp3909
Vcategory
p3910
Vpersonality
p3911
sVpercentage
p3912
F0.029009160773918432
sVid
p3913
VAchievement striving
p3914
sVsampling_error
p3915
F0.08801190652
sVname
p3916
VAchievement striving
p3917
sa(dp3918
Vcategory
p3919
Vpersonality
p3920
sVpercentage
p3921
F0.10408703994323594
sVid
p3922
VCautiousness
p3923
sVsampling_error
p3924
F0.08214475172
sVname
p3925
VCautiousness
p3926
sa(dp3927
Vcategory
p3928
Vpersonality
p3929
sVpercentage
p3930
F0.11855682516883631
sVid
p3931
VDutifulness
p3932
sVsampling_error
p3933
F0.05341496768
sVname
p3934
VDutifulness
p3935
sa(dp3936
Vcategory
p3937
Vpersonality
p3938
sVpercentage
p3939
F0.9222743581206785
sVid
p3940
VOrderliness
p3941
sVsampling_error
p3942
F0.06224051556
sVname
p3943
VOrderliness
p3944
sa(dp3945
Vcategory
p3946
Vpersonality
p3947
sVpercentage
p3948
F0.033550777980193396
sVid
p3949
VSelf-discipline
p3950
sVsampling_error
p3951
F0.04253971636
sVname
p3952
VSelf-discipline
p3953
sa(dp3954
Vcategory
p3955
Vpersonality
p3956
sVpercentage
p3957
F0.22329298972593653
sVid
p3958
VSelf-efficacy
p3959
sVsampling_error
p3960
F0.08181913512
sVname
p3961
VSelf-efficacy
p3962
sasa(dp3963
Vcategory
p3964
Vpersonality
p3965
sVname
p3966
VExtraversion
p3967
sVsampling_error
p3968
F0.049270295320000004
sVid
p3969
VExtraversion
p3970
sVpercentage
p3971
F0.9169292924384257
sVchildren
p3972
(lp3973
(dp3974
Vcategory
p3975
Vpersonality
p3976
sVpercentage
p3977
F0.33138117323393035
sVid
p3978
VActivity level
p3979
sVsampling_error
p3980
F0.06834424255999999
sVname
p3981
VActivity level
p3982
sa(dp3983
Vcategory
p3984
Vpersonality
p3985
sVpercentage
p3986
F0.959041405300494
sVid
p3987
VAssertiveness
p3988
sVsampling_error
p3989
F0.07285490996
sVname
p3990
VAssertiveness
p3991
sa(dp3992
Vcategory
p3993
Vpersonality
p3994
sVpercentage
p3995
F0.8703776650047745
sVid
p3996
VCheerfulness
p3997
sVsampling_error
p3998
F0.09108366412
sVname
p3999
VCheerfulness
p4000
sa(dp4001
Vcategory
p4002
Vpersonality
p4003
sVpercentage
p4004
F0.6479609438692618
sVid
p4005
VExcitement-seeking
p4006
sVsampling_error
p4007
F0.07544789772
sVname
p4008
VExcitement-seeking
p4009
sa(dp4010
Vcategory
p4011
Vpersonality
p4012
sVpercentage
p4013
F0.8793560524498752
sVid
p4014
VFriendliness
p4015
sVsampling_error
p4016
F0.0670131142
sVname
p4017
VOutgoing
p4018
sa(dp4019
Vcategory
p4020
Vpersonality
p4021
sVpercentage
p4022
F0.7895579151804868
sVid
p4023
VGregariousness
p4024
sVsampling_error
p4025
F0.05248644684
sVname
p4026
VGregariousness
p4027
sasa(dp4028
Vcategory
p4029
Vpersonality
p4030
sVname
p4031
VAgreeableness
p4032
sVsampling_error
p4033
F0.08645672772
sVid
p4034
VAgreeableness
p4035
sVpercentage
p4036
F0.9800215360220187
sVchildren
p4037
(lp4038
(dp4039
Vcategory
p4040
Vpersonality
p4041
sVpercentage
p4042
F0.46312393206371644
sVid
p4043
VAltruism
p4044
sVsampling_error
p4045
F0.06253087864
sVname
p4046
VAltruism
p4047
sa(dp4048
Vcategory
p4049
Vpersonality
p4050
sVpercentage
p4051
F0.1691001487919087
sVid
p4052
VCooperation
p4053
sVsampling_error
p4054
F0.072150952
sVname
p4055
VCooperation
p4056
sa(dp4057
Vcategory
p4058
Vpersonality
p4059
sVpercentage
p4060
F0.9199643806893328
sVid
p4061
VModesty
p4062
sVsampling_error
p4063
F0.04776581384
sVname
p4064
VModesty
p4065
sa(dp4066
Vcategory
p4067
Vpersonality
p4068
sVpercentage
p4069
F0.9426479144679951
sVid
p4070
VMorality
p4071
sVsampling_error
p4072
F0.055689114399999996
sVname
p4073
VUncompromising
p4074
sa(dp4075
Vcategory
p4076
Vpersonality
p4077
sVpercentage
p4078
F0.6629559293077893
sVid
p4079
VSympathy
p4080
sVsampling_error
p4081
F0.08673063603999999
sVname
p4082
VSympathy
p4083
sa(dp4084
Vcategory
p4085
Vpersonality
p4086
sVpercentage
p4087
F0.6547774647217551
sVid
p4088
VTrust
p4089
sVsampling_error
p4090
F0.0481037382
sVname
p4091
VTrust
p4092
sasa(dp4093
Vcategory
p4094
Vpersonality
p4095
sVname
p4096
VEmotional range
p4097
sVsampling_error
p4098
F0.07858074472
sVid
p4099
VNeuroticism
p4100
sVpercentage
p4101
F0.937786682426882
sVchildren
p4102
(lp4103
(dp4104
Vcategory
p4105
Vpersonality
p4106
sVpercentage
p4107
F0.9549767009014026
sVid
p4108
VAnger
p4109
sVsampling_error
p4110
F0.08266584696
sVname
p4111
VFiery
p4112
sa(dp4113
Vcategory
p4114
Vpersonality
p4115
sVpercentage
p4116
F0.9062355316281583
sVid
p4117
VAnxiety
p4118
sVsampling_error
p4119
F0.0476189266
sVname
p4120
VProne to worry
p4121
sa(dp4122
Vcategory
p4123
Vpersonality
p4124
sVpercentage
p4125
F0.9042194663135413
sVid
p4126
VDepression
p4127
sVsampling_error
p4128
F0.05009955864
sVname
p4129
VMelancholy
p4130
sa(dp4131
Vcategory
p4132
Vpersonality
p4133
sVpercentage
p4134
F0.8901159647160833
sVid
p4135
VImmoderation
p4136
sVsampling_error
p4137
F0.04711193716
sVname
p4138
VImmoderation
p4139
sa(dp4140
Vcategory
p4141
Vpersonality
p4142
sVpercentage
p4143
F0.1696584809984067
sVid
p4144
VSelf-consciousness
p4145
sVsampling_error
p4146
F0.04896188352
sVname
p4147
VSelf-consciousness
p4148
sa(dp4149
Vcategory
p4150
Vpersonality
p4151
sVpercentage
p4152
F0.9271954968786787
sVid
p4153
VVulnerability
p4154
sVsampling_error
p4155
F0.07376208304000001
sVname
p4156
VSusceptible to stress
p4157
sasasVid
p4158
VAgreeableness_parent
p4159
sVname
p4160
VAgreeableness
p4161
sasVid
p4162
Vpersonality
p4163
sVname
p4164
VBig 5
p4165
sa(dp4166
Vchildren
p4167
(lp4168
(dp4169
Vcategory
p4170
Vneeds
p4171
sVpercentage
p4172
F1.0
sVchildren
p4173
(lp4174
(dp4175
Vcategory
p4176
Vneeds
p4177
sVpercentage
p4178
F0.034072599665821025
sVid
p4179
VChallenge
p4180
sVsampling_error
p4181
F0.07350699952
sVname
p4182
VChallenge
p4183
sa(dp4184
Vcategory
p4185
Vneeds
p4186
sVpercentage
p4187
F0.7881264142533722
sVid
p4188
VCloseness
p4189
sVsampling_error
p4190
F0.07282719024
sVname
p4191
VCloseness
p4192
sa(dp4193
Vcategory
p4194
Vneeds
p4195
sVpercentage
p4196
F0.7461182061358526
sVid
p4197
VCuriosity
p4198
sVsampling_error
p4199
F0.10414167052
sVname
p4200
VCuriosity
p4201
sa(dp4202
Vcategory
p4203
Vneeds
p4204
sVpercentage
p4205
F0.7236192173012789
sVid
p4206
VExcitement
p4207
sVsampling_error
p4208
F0.09401610128
sVname
p4209
VExcitement
p4210
sa(dp4211
Vcategory
p4212
Vneeds
p4213
sVpercentage
p4214
F1.0
sVid
p4215
VHarmony
p4216
sVsampling_error
p4217
F0.09309885736000001
sVname
p4218
VHarmony
p4219
sa(dp4220
Vcategory
p4221
Vneeds
p4222
sVpercentage
p4223
F0.29308469419029193
sVid
p4224
VIdeal
p4225
sVsampling_error
p4226
F0.0844705416
sVname
p4227
VIdeal
p4228
sa(dp4229
Vcategory
p4230
Vneeds
p4231
sVpercentage
p4232
F0.8622976708796086
sVid
p4233
VLiberty
p4234
sVsampling_error
p4235
F0.12571708012
sVname
p4236
VLiberty
p4237
sa(dp4238
Vcategory
p4239
Vneeds
p4240
sVpercentage
p4241
F0.9799129460727872
sVid
p4242
VLove
p4243
sVsampling_error
p4244
F0.08528652760000001
sVname
p4245
VLove
p4246
sa(dp4247
Vcategory
p4248
Vneeds
p4249
sVpercentage
p4250
F1.0
sVid
p4251
VPracticality
p4252
sVsampling_error
p4253
F0.07593165852
sVname
p4254
VPracticality
p4255
sa(dp4256
Vcategory
p4257
Vneeds
p4258
sVpercentage
p4259
F0.18368710919795223
sVid
p4260
VSelf-expression
p4261
sVsampling_error
p4262
F0.07172896912
sVname
p4263
VSelf-expression
p4264
sa(dp4265
Vcategory
p4266
Vneeds
p4267
sVpercentage
p4268
F0.6688609052176848
sVid
p4269
VStability
p4270
sVsampling_error
p4271
F0.0928061224
sVname
p4272
VStability
p4273
sa(dp4274
Vcategory
p4275
Vneeds
p4276
sVpercentage
p4277
F0.24438342595489726
sVid
p4278
VStructure
p4279
sVsampling_error
p4280
F0.06982716868
sVname
p4281
VStructure
p4282
sasVid
p4283
VHarmony_parent
p4284
sVname
p4285
VHarmony
p4286
sasVid
p4287
Vneeds
p4288
sVname
p4289
VNeeds
p4290
sa(dp4291
Vchildren
p4292
(lp4293
(dp4294
Vcategory
p4295
Vvalues
p4296
sVpercentage
p4297
F0.010450866763794243
sVchildren
p4298
(lp4299
(dp4300
Vcategory
p4301
Vvalues
p4302
sVpercentage
p4303
F0.010450866763794243
sVid
p4304
VConservation
p4305
sVsampling_error
p4306
F0.06273419595999999
sVname
p4307
VConservation
p4308
sa(dp4309
Vcategory
p4310
Vvalues
p4311
sVpercentage
p4312
F0.984221047161864
sVid
p4313
VOpenness to change
p4314
sVsampling_error
p4315
F0.05714971628
sVname
p4316
VOpenness to change
p4317
sa(dp4318
Vcategory
p4319
Vvalues
p4320
sVpercentage
p4321
F0.9218754468138706
sVid
p4322
VHedonism
p4323
sVsampling_error
p4324
F0.11654071396
sVname
p4325
VHedonism
p4326
sa(dp4327
Vcategory
p4328
Vvalues
p4329
sVpercentage
p4330
F0.124683142732655
sVid
p4331
VSelf-enhancement
p4332
sVsampling_error
p4333
F0.08900223772
sVname
p4334
VSelf-enhancement
p4335
sa(dp4336
Vcategory
p4337
Vvalues
p4338
sVpercentage
p4339
F0.8726940057713928
sVid
p4340
VSelf-transcendence
p4341
sVsampling_error
p4342
F0.06706586944
sVname
p4343
VSelf-transcendence
p4344
sasVid
p4345
VConservation_parent
p4346
sVname
p4347
VConservation
p4348
sasVid
p4349
Vvalues
p4350
sVname
p4351
VValues
p4352
sasVid
p4353
Vr
p4354
sVname
p4355
Vroot
p4356
ssVid
p4357
V*UNKNOWN*
p4358
sVword_count
p4359
I5371
sVprocessed_lang
p4360
Ven
p4361
sa(dp4362
Vsource
p4363
V*UNKNOWN*
p4364
sVtree
p4365
(dp4366
Vchildren
p4367
(lp4368
(dp4369
Vchildren
p4370
(lp4371
(dp4372
Vcategory
p4373
Vpersonality
p4374
sVpercentage
p4375
F0.019185396573272943
sVchildren
p4376
(lp4377
(dp4378
Vcategory
p4379
Vpersonality
p4380
sVname
p4381
VOpenness
p4382
sVsampling_error
p4383
F0.049813534
sVid
p4384
VOpenness
p4385
sVpercentage
p4386
F0.139710472550845
sVchildren
p4387
(lp4388
(dp4389
Vcategory
p4390
Vpersonality
p4391
sVpercentage
p4392
F0.20017953721994053
sVid
p4393
VAdventurousness
p4394
sVsampling_error
p4395
F0.043806862
sVname
p4396
VAdventurousness
p4397
sa(dp4398
Vcategory
p4399
Vpersonality
p4400
sVpercentage
p4401
F0.06064388045836743
sVid
p4402
VArtistic interests
p4403
sVsampling_error
p4404
F0.091931211
sVname
p4405
VArtistic interests
p4406
sa(dp4407
Vcategory
p4408
Vpersonality
p4409
sVpercentage
p4410
F0.7567201407741198
sVid
p4411
VEmotionality
p4412
sVsampling_error
p4413
F0.040249067
sVname
p4414
VEmotionality
p4415
sa(dp4416
Vcategory
p4417
Vpersonality
p4418
sVpercentage
p4419
F0.05731197648797988
sVid
p4420
VImagination
p4421
sVsampling_error
p4422
F0.054394309
sVname
p4423
VImagination
p4424
sa(dp4425
Vcategory
p4426
Vpersonality
p4427
sVpercentage
p4428
F0.19362811177236128
sVid
p4429
VIntellect
p4430
sVsampling_error
p4431
F0.047129675999999995
sVname
p4432
VIntellect
p4433
sa(dp4434
Vcategory
p4435
Vpersonality
p4436
sVpercentage
p4437
F0.10025097784286624
sVid
p4438
VLiberalism
p4439
sVsampling_error
p4440
F0.072534955
sVname
p4441
VAuthority-challenging
p4442
sasa(dp4443
Vcategory
p4444
Vpersonality
p4445
sVname
p4446
VConscientiousness
p4447
sVsampling_error
p4448
F0.062955714
sVid
p4449
VConscientiousness
p4450
sVpercentage
p4451
F0.019185396573272943
sVchildren
p4452
(lp4453
(dp4454
Vcategory
p4455
Vpersonality
p4456
sVpercentage
p4457
F0.009949568975186205
sVid
p4458
VAchievement striving
p4459
sVsampling_error
p4460
F0.087332278
sVname
p4461
VAchievement striving
p4462
sa(dp4463
Vcategory
p4464
Vpersonality
p4465
sVpercentage
p4466
F0.08892222192250827
sVid
p4467
VCautiousness
p4468
sVsampling_error
p4469
F0.07959796300000001
sVname
p4470
VCautiousness
p4471
sa(dp4472
Vcategory
p4473
Vpersonality
p4474
sVpercentage
p4475
F0.10158567852944611
sVid
p4476
VDutifulness
p4477
sVsampling_error
p4478
F0.054065618999999995
sVname
p4479
VDutifulness
p4480
sa(dp4481
Vcategory
p4482
Vpersonality
p4483
sVpercentage
p4484
F0.5532144799520073
sVid
p4485
VOrderliness
p4486
sVsampling_error
p4487
F0.060039487
sVname
p4488
VOrderliness
p4489
sa(dp4490
Vcategory
p4491
Vpersonality
p4492
sVpercentage
p4493
F0.012983715264079336
sVid
p4494
VSelf-discipline
p4495
sVsampling_error
p4496
F0.041364135999999996
sVname
p4497
VSelf-discipline
p4498
sa(dp4499
Vcategory
p4500
Vpersonality
p4501
sVpercentage
p4502
F0.2153700597166143
sVid
p4503
VSelf-efficacy
p4504
sVsampling_error
p4505
F0.079415925
sVname
p4506
VSelf-efficacy
p4507
sasa(dp4508
Vcategory
p4509
Vpersonality
p4510
sVname
p4511
VExtraversion
p4512
sVsampling_error
p4513
F0.047491162999999996
sVid
p4514
VExtraversion
p4515
sVpercentage
p4516
F0.9527414998405818
sVchildren
p4517
(lp4518
(dp4519
Vcategory
p4520
Vpersonality
p4521
sVpercentage
p4522
F0.1906432292060216
sVid
p4523
VActivity level
p4524
sVsampling_error
p4525
F0.06649482400000001
sVname
p4526
VActivity level
p4527
sa(dp4528
Vcategory
p4529
Vpersonality
p4530
sVpercentage
p4531
F0.9703217665135987
sVid
p4532
VAssertiveness
p4533
sVsampling_error
p4534
F0.070836183
sVname
p4535
VAssertiveness
p4536
sa(dp4537
Vcategory
p4538
Vpersonality
p4539
sVpercentage
p4540
F0.8347369334276976
sVid
p4541
VCheerfulness
p4542
sVsampling_error
p4543
F0.08785362
sVname
p4544
VCheerfulness
p4545
sa(dp4546
Vcategory
p4547
Vpersonality
p4548
sVpercentage
p4549
F0.6865867679270038
sVid
p4550
VExcitement-seeking
p4551
sVsampling_error
p4552
F0.073145343
sVname
p4553
VExcitement-seeking
p4554
sa(dp4555
Vcategory
p4556
Vpersonality
p4557
sVpercentage
p4558
F0.9290434347398296
sVid
p4559
VFriendliness
p4560
sVsampling_error
p4561
F0.064827488
sVname
p4562
VOutgoing
p4563
sa(dp4564
Vcategory
p4565
Vpersonality
p4566
sVpercentage
p4567
F0.875838851316354
sVid
p4568
VGregariousness
p4569
sVsampling_error
p4570
F0.051105366
sVname
p4571
VGregariousness
p4572
sasa(dp4573
Vcategory
p4574
Vpersonality
p4575
sVname
p4576
VAgreeableness
p4577
sVsampling_error
p4578
F0.085802149
sVid
p4579
VAgreeableness
p4580
sVpercentage
p4581
F0.9663225661920256
sVchildren
p4582
(lp4583
(dp4584
Vcategory
p4585
Vpersonality
p4586
sVpercentage
p4587
F0.5661962588754151
sVid
p4588
VAltruism
p4589
sVsampling_error
p4590
F0.060747641
sVname
p4591
VAltruism
p4592
sa(dp4593
Vcategory
p4594
Vpersonality
p4595
sVpercentage
p4596
F0.2262435827828127
sVid
p4597
VCooperation
p4598
sVsampling_error
p4599
F0.070082642
sVname
p4600
VCooperation
p4601
sa(dp4602
Vcategory
p4603
Vpersonality
p4604
sVpercentage
p4605
F0.8571532325987516
sVid
p4606
VModesty
p4607
sVsampling_error
p4608
F0.046757088
sVname
p4609
VModesty
p4610
sa(dp4611
Vcategory
p4612
Vpersonality
p4613
sVpercentage
p4614
F0.8760448519075019
sVid
p4615
VMorality
p4616
sVsampling_error
p4617
F0.054120866000000004
sVname
p4618
VUncompromising
p4619
sa(dp4620
Vcategory
p4621
Vpersonality
p4622
sVpercentage
p4623
F0.8152233947733903
sVid
p4624
VSympathy
p4625
sVsampling_error
p4626
F0.085291622
sVname
p4627
VSympathy
p4628
sa(dp4629
Vcategory
p4630
Vpersonality
p4631
sVpercentage
p4632
F0.6447055363779559
sVid
p4633
VTrust
p4634
sVsampling_error
p4635
F0.048181796
sVname
p4636
VTrust
p4637
sasa(dp4638
Vcategory
p4639
Vpersonality
p4640
sVname
p4641
VEmotional range
p4642
sVsampling_error
p4643
F0.077396413
sVid
p4644
VNeuroticism
p4645
sVpercentage
p4646
F0.822887551417556
sVchildren
p4647
(lp4648
(dp4649
Vcategory
p4650
Vpersonality
p4651
sVpercentage
p4652
F0.8938938980402754
sVid
p4653
VAnger
p4654
sVsampling_error
p4655
F0.082104959
sVname
p4656
VFiery
p4657
sa(dp4658
Vcategory
p4659
Vpersonality
p4660
sVpercentage
p4661
F0.7083487392757074
sVid
p4662
VAnxiety
p4663
sVsampling_error
p4664
F0.046299672
sVname
p4665
VProne to worry
p4666
sa(dp4667
Vcategory
p4668
Vpersonality
p4669
sVpercentage
p4670
F0.9257065886598247
sVid
p4671
VDepression
p4672
sVsampling_error
p4673
F0.048313169
sVname
p4674
VMelancholy
p4675
sa(dp4676
Vcategory
p4677
Vpersonality
p4678
sVpercentage
p4679
F0.8333900360668635
sVid
p4680
VImmoderation
p4681
sVsampling_error
p4682
F0.045490088
sVname
p4683
VImmoderation
p4684
sa(dp4685
Vcategory
p4686
Vpersonality
p4687
sVpercentage
p4688
F0.12515362486705273
sVid
p4689
VSelf-consciousness
p4690
sVsampling_error
p4691
F0.047401837
sVname
p4692
VSelf-consciousness
p4693
sa(dp4694
Vcategory
p4695
Vpersonality
p4696
sVpercentage
p4697
F0.6814773999916883
sVid
p4698
VVulnerability
p4699
sVsampling_error
p4700
F0.072082987
sVname
p4701
VSusceptible to stress
p4702
sasasVid
p4703
VConscientiousness_parent
p4704
sVname
p4705
VConscientiousness
p4706
sasVid
p4707
Vpersonality
p4708
sVname
p4709
VBig 5
p4710
sa(dp4711
Vchildren
p4712
(lp4713
(dp4714
Vcategory
p4715
Vneeds
p4716
sVpercentage
p4717
F1.0
sVchildren
p4718
(lp4719
(dp4720
Vcategory
p4721
Vneeds
p4722
sVpercentage
p4723
F0.07353299955064602
sVid
p4724
VChallenge
p4725
sVsampling_error
p4726
F0.070587084
sVname
p4727
VChallenge
p4728
sa(dp4729
Vcategory
p4730
Vneeds
p4731
sVpercentage
p4732
F0.8504130736373792
sVid
p4733
VCloseness
p4734
sVsampling_error
p4735
F0.070291463
sVname
p4736
VCloseness
p4737
sa(dp4738
Vcategory
p4739
Vneeds
p4740
sVpercentage
p4741
F0.7517765210171495
sVid
p4742
VCuriosity
p4743
sVsampling_error
p4744
F0.098627829
sVname
p4745
VCuriosity
p4746
sa(dp4747
Vcategory
p4748
Vneeds
p4749
sVpercentage
p4750
F0.7346444404884969
sVid
p4751
VExcitement
p4752
sVsampling_error
p4753
F0.08901041
sVname
p4754
VExcitement
p4755
sa(dp4756
Vcategory
p4757
Vneeds
p4758
sVpercentage
p4759
F1.0
sVid
p4760
VHarmony
p4761
sVsampling_error
p4762
F0.088243659
sVname
p4763
VHarmony
p4764
sa(dp4765
Vcategory
p4766
Vneeds
p4767
sVpercentage
p4768
F0.2279922174010257
sVid
p4769
VIdeal
p4770
sVsampling_error
p4771
F0.081626411
sVname
p4772
VIdeal
p4773
sa(dp4774
Vcategory
p4775
Vneeds
p4776
sVpercentage
p4777
F0.8574470124329406
sVid
p4778
VLiberty
p4779
sVsampling_error
p4780
F0.121457691
sVname
p4781
VLiberty
p4782
sa(dp4783
Vcategory
p4784
Vneeds
p4785
sVpercentage
p4786
F0.9895862547384153
sVid
p4787
VLove
p4788
sVsampling_error
p4789
F0.081392168
sVname
p4790
VLove
p4791
sa(dp4792
Vcategory
p4793
Vneeds
p4794
sVpercentage
p4795
F1.0
sVid
p4796
VPracticality
p4797
sVsampling_error
p4798
F0.072543993
sVname
p4799
VPracticality
p4800
sa(dp4801
Vcategory
p4802
Vneeds
p4803
sVpercentage
p4804
F0.12111631103715144
sVid
p4805
VSelf-expression
p4806
sVsampling_error
p4807
F0.069020946
sVname
p4808
VSelf-expression
p4809
sa(dp4810
Vcategory
p4811
Vneeds
p4812
sVpercentage
p4813
F0.7068404818131651
sVid
p4814
VStability
p4815
sVsampling_error
p4816
F0.08888860600000001
sVname
p4817
VStability
p4818
sa(dp4819
Vcategory
p4820
Vneeds
p4821
sVpercentage
p4822
F0.37013713011900845
sVid
p4823
VStructure
p4824
sVsampling_error
p4825
F0.06696432100000001
sVname
p4826
VStructure
p4827
sasVid
p4828
VHarmony_parent
p4829
sVname
p4830
VHarmony
p4831
sasVid
p4832
Vneeds
p4833
sVname
p4834
VNeeds
p4835
sa(dp4836
Vchildren
p4837
(lp4838
(dp4839
Vcategory
p4840
Vvalues
p4841
sVpercentage
p4842
F0.9801971494617028
sVchildren
p4843
(lp4844
(dp4845
Vcategory
p4846
Vvalues
p4847
sVpercentage
p4848
F0.021461476863281002
sVid
p4849
VConservation
p4850
sVsampling_error
p4851
F0.061793424
sVname
p4852
VConservation
p4853
sa(dp4854
Vcategory
p4855
Vvalues
p4856
sVpercentage
p4857
F0.9801971494617028
sVid
p4858
VOpenness to change
p4859
sVsampling_error
p4860
F0.056212406
sVname
p4861
VOpenness to change
p4862
sa(dp4863
Vcategory
p4864
Vvalues
p4865
sVpercentage
p4866
F0.9513237097061712
sVid
p4867
VHedonism
p4868
sVsampling_error
p4869
F0.110978491
sVname
p4870
VHedonism
p4871
sa(dp4872
Vcategory
p4873
Vvalues
p4874
sVpercentage
p4875
F0.17726953910253315
sVid
p4876
VSelf-enhancement
p4877
sVsampling_error
p4878
F0.08598508
sVname
p4879
VSelf-enhancement
p4880
sa(dp4881
Vcategory
p4882
Vvalues
p4883
sVpercentage
p4884
F0.7294697578231154
sVid
p4885
VSelf-transcendence
p4886
sVsampling_error
p4887
F0.06436132
sVname
p4888
VSelf-transcendence
p4889
sasVid
p4890
VOpenness to change_parent
p4891
sVname
p4892
VOpenness to change
p4893
sasVid
p4894
Vvalues
p4895
sVname
p4896
VValues
p4897
sasVid
p4898
Vr
p4899
sVname
p4900
Vroot
p4901
ssVid
p4902
V*UNKNOWN*
p4903
sVword_count
p4904
I7675
sVprocessed_lang
p4905
Ven
p4906
sa(dp4907
Vsource
p4908
V*UNKNOWN*
p4909
sVtree
p4910
(dp4911
Vchildren
p4912
(lp4913
(dp4914
Vchildren
p4915
(lp4916
(dp4917
Vcategory
p4918
Vpersonality
p4919
sVpercentage
p4920
F1.0
sVchildren
p4921
(lp4922
(dp4923
Vcategory
p4924
Vpersonality
p4925
sVname
p4926
VOpenness
p4927
sVsampling_error
p4928
F0.05138426408
sVid
p4929
VOpenness
p4930
sVpercentage
p4931
F0.07080582992602212
sVchildren
p4932
(lp4933
(dp4934
Vcategory
p4935
Vpersonality
p4936
sVpercentage
p4937
F0.16607427366852434
sVid
p4938
VAdventurousness
p4939
sVsampling_error
p4940
F0.04529259664
sVname
p4941
VAdventurousness
p4942
sa(dp4943
Vcategory
p4944
Vpersonality
p4945
sVpercentage
p4946
F0.12247205177680456
sVid
p4947
VArtistic interests
p4948
sVsampling_error
p4949
F0.09324301008000001
sVname
p4950
VArtistic interests
p4951
sa(dp4952
Vcategory
p4953
Vpersonality
p4954
sVpercentage
p4955
F0.8023815987411277
sVid
p4956
VEmotionality
p4957
sVsampling_error
p4958
F0.04343386104
sVname
p4959
VEmotionality
p4960
sa(dp4961
Vcategory
p4962
Vpersonality
p4963
sVpercentage
p4964
F0.018439613564414994
sVid
p4965
VImagination
p4966
sVsampling_error
p4967
F0.0563057488
sVname
p4968
VImagination
p4969
sa(dp4970
Vcategory
p4971
Vpersonality
p4972
sVpercentage
p4973
F0.11597365143471738
sVid
p4974
VIntellect
p4975
sVsampling_error
p4976
F0.04903598224
sVname
p4977
VIntellect
p4978
sa(dp4979
Vcategory
p4980
Vpersonality
p4981
sVpercentage
p4982
F0.023752320321844992
sVid
p4983
VLiberalism
p4984
sVsampling_error
p4985
F0.07474069343999999
sVname
p4986
VAuthority-challenging
p4987
sasa(dp4988
Vcategory
p4989
Vpersonality
p4990
sVname
p4991
VConscientiousness
p4992
sVsampling_error
p4993
F0.06730336424
sVid
p4994
VConscientiousness
p4995
sVpercentage
p4996
F0.032715095513858
sVchildren
p4997
(lp4998
(dp4999
Vcategory
p5000
Vpersonality
p5001
sVpercentage
p5002
F0.011258049634993942
sVid
p5003
VAchievement striving
p5004
sVsampling_error
p5005
F0.08818074496
sVname
p5006
VAchievement striving
p5007
sa(dp5008
Vcategory
p5009
Vpersonality
p5010
sVpercentage
p5011
F0.0882601545955271
sVid
p5012
VCautiousness
p5013
sVsampling_error
p5014
F0.08217290104
sVname
p5015
VCautiousness
p5016
sa(dp5017
Vcategory
p5018
Vpersonality
p5019
sVpercentage
p5020
F0.0769137521760854
sVid
p5021
VDutifulness
p5022
sVsampling_error
p5023
F0.053529794639999996
sVname
p5024
VDutifulness
p5025
sa(dp5026
Vcategory
p5027
Vpersonality
p5028
sVpercentage
p5029
F0.5613970113141051
sVid
p5030
VOrderliness
p5031
sVsampling_error
p5032
F0.06198620384
sVname
p5033
VOrderliness
p5034
sa(dp5035
Vcategory
p5036
Vpersonality
p5037
sVpercentage
p5038
F0.025846123531598535
sVid
p5039
VSelf-discipline
p5040
sVsampling_error
p5041
F0.04299524976
sVname
p5042
VSelf-discipline
p5043
sa(dp5044
Vcategory
p5045
Vpersonality
p5046
sVpercentage
p5047
F0.16214816316886813
sVid
p5048
VSelf-efficacy
p5049
sVsampling_error
p5050
F0.08219488416000001
sVname
p5051
VSelf-efficacy
p5052
sasa(dp5053
Vcategory
p5054
Vpersonality
p5055
sVname
p5056
VExtraversion
p5057
sVsampling_error
p5058
F0.04922553056
sVid
p5059
VExtraversion
p5060
sVpercentage
p5061
F0.989960214734865
sVchildren
p5062
(lp5063
(dp5064
Vcategory
p5065
Vpersonality
p5066
sVpercentage
p5067
F0.14601093509988122
sVid
p5068
VActivity level
p5069
sVsampling_error
p5070
F0.06858454528
sVname
p5071
VActivity level
p5072
sa(dp5073
Vcategory
p5074
Vpersonality
p5075
sVpercentage
p5076
F1.0
sVid
p5077
VAssertiveness
p5078
sVsampling_error
p5079
F0.0733371492
sVname
p5080
VAssertiveness
p5081
sa(dp5082
Vcategory
p5083
Vpersonality
p5084
sVpercentage
p5085
F0.9228324072620969
sVid
p5086
VCheerfulness
p5087
sVsampling_error
p5088
F0.09149009896
sVname
p5089
VCheerfulness
p5090
sa(dp5091
Vcategory
p5092
Vpersonality
p5093
sVpercentage
p5094
F0.7093085645913129
sVid
p5095
VExcitement-seeking
p5096
sVsampling_error
p5097
F0.07613922735999999
sVname
p5098
VExcitement-seeking
p5099
sa(dp5100
Vcategory
p5101
Vpersonality
p5102
sVpercentage
p5103
F0.9726390861044337
sVid
p5104
VFriendliness
p5105
sVsampling_error
p5106
F0.06722607888
sVname
p5107
VOutgoing
p5108
sa(dp5109
Vcategory
p5110
Vpersonality
p5111
sVpercentage
p5112
F0.9691788669451008
sVid
p5113
VGregariousness
p5114
sVsampling_error
p5115
F0.05299226624
sVname
p5116
VGregariousness
p5117
sasa(dp5118
Vcategory
p5119
Vpersonality
p5120
sVname
p5121
VAgreeableness
p5122
sVsampling_error
p5123
F0.08685934656
sVid
p5124
VAgreeableness
p5125
sVpercentage
p5126
F1.0
sVchildren
p5127
(lp5128
(dp5129
Vcategory
p5130
Vpersonality
p5131
sVpercentage
p5132
F0.6650691067202742
sVid
p5133
VAltruism
p5134
sVsampling_error
p5135
F0.06262221936
sVname
p5136
VAltruism
p5137
sa(dp5138
Vcategory
p5139
Vpersonality
p5140
sVpercentage
p5141
F0.1339115207845014
sVid
p5142
VCooperation
p5143
sVsampling_error
p5144
F0.07231176416
sVname
p5145
VCooperation
p5146
sa(dp5147
Vcategory
p5148
Vpersonality
p5149
sVpercentage
p5150
F0.8088875411518982
sVid
p5151
VModesty
p5152
sVsampling_error
p5153
F0.04816842672
sVname
p5154
VModesty
p5155
sa(dp5156
Vcategory
p5157
Vpersonality
p5158
sVpercentage
p5159
F0.90220222424887
sVid
p5160
VMorality
p5161
sVsampling_error
p5162
F0.055755700160000005
sVname
p5163
VUncompromising
p5164
sa(dp5165
Vcategory
p5166
Vpersonality
p5167
sVpercentage
p5168
F0.7809215571146699
sVid
p5169
VSympathy
p5170
sVsampling_error
p5171
F0.08741199704
sVname
p5172
VSympathy
p5173
sa(dp5174
Vcategory
p5175
Vpersonality
p5176
sVpercentage
p5177
F0.5052286107050098
sVid
p5178
VTrust
p5179
sVsampling_error
p5180
F0.04817499872
sVname
p5181
VTrust
p5182
sasa(dp5183
Vcategory
p5184
Vpersonality
p5185
sVname
p5186
VEmotional range
p5187
sVsampling_error
p5188
F0.07882583256
sVid
p5189
VNeuroticism
p5190
sVpercentage
p5191
F0.7350737395734234
sVchildren
p5192
(lp5193
(dp5194
Vcategory
p5195
Vpersonality
p5196
sVpercentage
p5197
F0.8759395825513113
sVid
p5198
VAnger
p5199
sVsampling_error
p5200
F0.08290628648
sVname
p5201
VFiery
p5202
sa(dp5203
Vcategory
p5204
Vpersonality
p5205
sVpercentage
p5206
F0.7210757248275654
sVid
p5207
VAnxiety
p5208
sVsampling_error
p5209
F0.04794027048
sVname
p5210
VProne to worry
p5211
sa(dp5212
Vcategory
p5213
Vpersonality
p5214
sVpercentage
p5215
F0.9162179143677522
sVid
p5216
VDepression
p5217
sVsampling_error
p5218
F0.050248469760000004
sVname
p5219
VMelancholy
p5220
sa(dp5221
Vcategory
p5222
Vpersonality
p5223
sVpercentage
p5224
F0.7603129944151344
sVid
p5225
VImmoderation
p5226
sVsampling_error
p5227
F0.047838608240000004
sVname
p5228
VImmoderation
p5229
sa(dp5230
Vcategory
p5231
Vpersonality
p5232
sVpercentage
p5233
F0.026801607814383583
sVid
p5234
VSelf-consciousness
p5235
sVsampling_error
p5236
F0.04926823736
sVname
p5237
VSelf-consciousness
p5238
sa(dp5239
Vcategory
p5240
Vpersonality
p5241
sVpercentage
p5242
F0.6719767216346539
sVid
p5243
VVulnerability
p5244
sVsampling_error
p5245
F0.07410690632
sVname
p5246
VSusceptible to stress
p5247
sasasVid
p5248
VAgreeableness_parent
p5249
sVname
p5250
VAgreeableness
p5251
sasVid
p5252
Vpersonality
p5253
sVname
p5254
VBig 5
p5255
sa(dp5256
Vchildren
p5257
(lp5258
(dp5259
Vcategory
p5260
Vneeds
p5261
sVpercentage
p5262
F1.0
sVchildren
p5263
(lp5264
(dp5265
Vcategory
p5266
Vneeds
p5267
sVpercentage
p5268
F0.01304533336861004
sVid
p5269
VChallenge
p5270
sVsampling_error
p5271
F0.07355055024
sVname
p5272
VChallenge
p5273
sa(dp5274
Vcategory
p5275
Vneeds
p5276
sVpercentage
p5277
F0.7926173242574578
sVid
p5278
VCloseness
p5279
sVsampling_error
p5280
F0.07297567744
sVname
p5281
VCloseness
p5282
sa(dp5283
Vcategory
p5284
Vneeds
p5285
sVpercentage
p5286
F0.45863665940315057
sVid
p5287
VCuriosity
p5288
sVsampling_error
p5289
F0.1045075236
sVname
p5290
VCuriosity
p5291
sa(dp5292
Vcategory
p5293
Vneeds
p5294
sVpercentage
p5295
F0.6320395814545666
sVid
p5296
VExcitement
p5297
sVsampling_error
p5298
F0.0943747468
sVname
p5299
VExcitement
p5300
sa(dp5301
Vcategory
p5302
Vneeds
p5303
sVpercentage
p5304
F1.0
sVid
p5305
VHarmony
p5306
sVsampling_error
p5307
F0.09379365488000001
sVname
p5308
VHarmony
p5309
sa(dp5310
Vcategory
p5311
Vneeds
p5312
sVpercentage
p5313
F0.10282605654777789
sVid
p5314
VIdeal
p5315
sVsampling_error
p5316
F0.08451152008
sVname
p5317
VIdeal
p5318
sa(dp5319
Vcategory
p5320
Vneeds
p5321
sVpercentage
p5322
F0.8333543649573593
sVid
p5323
VLiberty
p5324
sVsampling_error
p5325
F0.12580375624
sVname
p5326
VLiberty
p5327
sa(dp5328
Vcategory
p5329
Vneeds
p5330
sVpercentage
p5331
F0.9755277714990626
sVid
p5332
VLove
p5333
sVsampling_error
p5334
F0.08554023488
sVname
p5335
VLove
p5336
sa(dp5337
Vcategory
p5338
Vneeds
p5339
sVpercentage
p5340
F1.0
sVid
p5341
VPracticality
p5342
sVsampling_error
p5343
F0.07607037711999999
sVname
p5344
VPracticality
p5345
sa(dp5346
Vcategory
p5347
Vneeds
p5348
sVpercentage
p5349
F0.07698221799910049
sVid
p5350
VSelf-expression
p5351
sVsampling_error
p5352
F0.07162482136
sVname
p5353
VSelf-expression
p5354
sa(dp5355
Vcategory
p5356
Vneeds
p5357
sVpercentage
p5358
F0.4651805320230527
sVid
p5359
VStability
p5360
sVsampling_error
p5361
F0.09323463624
sVname
p5362
VStability
p5363
sa(dp5364
Vcategory
p5365
Vneeds
p5366
sVpercentage
p5367
F0.05329988067051855
sVid
p5368
VStructure
p5369
sVsampling_error
p5370
F0.06976260463999999
sVname
p5371
VStructure
p5372
sasVid
p5373
VHarmony_parent
p5374
sVname
p5375
VHarmony
p5376
sasVid
p5377
Vneeds
p5378
sVname
p5379
VNeeds
p5380
sa(dp5381
Vchildren
p5382
(lp5383
(dp5384
Vcategory
p5385
Vvalues
p5386
sVpercentage
p5387
F0.00995857931516056
sVchildren
p5388
(lp5389
(dp5390
Vcategory
p5391
Vvalues
p5392
sVpercentage
p5393
F0.00995857931516056
sVid
p5394
VConservation
p5395
sVsampling_error
p5396
F0.06227023936
sVname
p5397
VConservation
p5398
sa(dp5399
Vcategory
p5400
Vvalues
p5401
sVpercentage
p5402
F0.9853617954963221
sVid
p5403
VOpenness to change
p5404
sVsampling_error
p5405
F0.057618349119999995
sVname
p5406
VOpenness to change
p5407
sa(dp5408
Vcategory
p5409
Vvalues
p5410
sVpercentage
p5411
F0.973289896778207
sVid
p5412
VHedonism
p5413
sVsampling_error
p5414
F0.11601682104
sVname
p5415
VHedonism
p5416
sa(dp5417
Vcategory
p5418
Vvalues
p5419
sVpercentage
p5420
F0.23029716427838962
sVid
p5421
VSelf-enhancement
p5422
sVsampling_error
p5423
F0.08929920208
sVname
p5424
VSelf-enhancement
p5425
sa(dp5426
Vcategory
p5427
Vvalues
p5428
sVpercentage
p5429
F0.74319637113264
sVid
p5430
VSelf-transcendence
p5431
sVsampling_error
p5432
F0.06684731624
sVname
p5433
VSelf-transcendence
p5434
sasVid
p5435
VConservation_parent
p5436
sVname
p5437
VConservation
p5438
sasVid
p5439
Vvalues
p5440
sVname
p5441
VValues
p5442
sasVid
p5443
Vr
p5444
sVname
p5445
Vroot
p5446
ssVid
p5447
V*UNKNOWN*
p5448
sVword_count
p5449
I5022
sVprocessed_lang
p5450
Ven
p5451
sa(dp5452
Vsource
p5453
V*UNKNOWN*
p5454
sVtree
p5455
(dp5456
Vchildren
p5457
(lp5458
(dp5459
Vchildren
p5460
(lp5461
(dp5462
Vcategory
p5463
Vpersonality
p5464
sVpercentage
p5465
F0.9859418486163867
sVchildren
p5466
(lp5467
(dp5468
Vcategory
p5469
Vpersonality
p5470
sVname
p5471
VOpenness
p5472
sVsampling_error
p5473
F0.05117367456
sVid
p5474
VOpenness
p5475
sVpercentage
p5476
F0.039405379803823325
sVchildren
p5477
(lp5478
(dp5479
Vcategory
p5480
Vpersonality
p5481
sVpercentage
p5482
F0.06877684167338924
sVid
p5483
VAdventurousness
p5484
sVsampling_error
p5485
F0.0451391788
sVname
p5486
VAdventurousness
p5487
sa(dp5488
Vcategory
p5489
Vpersonality
p5490
sVpercentage
p5491
F0.06385447332402067
sVid
p5492
VArtistic interests
p5493
sVsampling_error
p5494
F0.0922070752
sVname
p5495
VArtistic interests
p5496
sa(dp5497
Vcategory
p5498
Vpersonality
p5499
sVpercentage
p5500
F0.9203940860244803
sVid
p5501
VEmotionality
p5502
sVsampling_error
p5503
F0.04255363424
sVname
p5504
VEmotionality
p5505
sa(dp5506
Vcategory
p5507
Vpersonality
p5508
sVpercentage
p5509
F0.009684633051326818
sVid
p5510
VImagination
p5511
sVsampling_error
p5512
F0.05614888272
sVname
p5513
VImagination
p5514
sa(dp5515
Vcategory
p5516
Vpersonality
p5517
sVpercentage
p5518
F0.04138728291605024
sVid
p5519
VIntellect
p5520
sVsampling_error
p5521
F0.04887710312
sVname
p5522
VIntellect
p5523
sa(dp5524
Vcategory
p5525
Vpersonality
p5526
sVpercentage
p5527
F0.06576116558505843
sVid
p5528
VLiberalism
p5529
sVsampling_error
p5530
F0.07466776160000001
sVname
p5531
VAuthority-challenging
p5532
sasa(dp5533
Vcategory
p5534
Vpersonality
p5535
sVname
p5536
VConscientiousness
p5537
sVsampling_error
p5538
F0.06606386352
sVid
p5539
VConscientiousness
p5540
sVpercentage
p5541
F0.035448175433189906
sVchildren
p5542
(lp5543
(dp5544
Vcategory
p5545
Vpersonality
p5546
sVpercentage
p5547
F0.016798596733652943
sVid
p5548
VAchievement striving
p5549
sVsampling_error
p5550
F0.0883004296
sVname
p5551
VAchievement striving
p5552
sa(dp5553
Vcategory
p5554
Vpersonality
p5555
sVpercentage
p5556
F0.07652728977097759
sVid
p5557
VCautiousness
p5558
sVsampling_error
p5559
F0.0824570996
sVname
p5560
VCautiousness
p5561
sa(dp5562
Vcategory
p5563
Vpersonality
p5564
sVpercentage
p5565
F0.18149433056418515
sVid
p5566
VDutifulness
p5567
sVsampling_error
p5568
F0.05393050008
sVname
p5569
VDutifulness
p5570
sa(dp5571
Vcategory
p5572
Vpersonality
p5573
sVpercentage
p5574
F0.8401525162806569
sVid
p5575
VOrderliness
p5576
sVsampling_error
p5577
F0.06227742712
sVname
p5578
VOrderliness
p5579
sa(dp5580
Vcategory
p5581
Vpersonality
p5582
sVpercentage
p5583
F0.04969845177882117
sVid
p5584
VSelf-discipline
p5585
sVsampling_error
p5586
F0.04188342904
sVname
p5587
VSelf-discipline
p5588
sa(dp5589
Vcategory
p5590
Vpersonality
p5591
sVpercentage
p5592
F0.2897317055463659
sVid
p5593
VSelf-efficacy
p5594
sVsampling_error
p5595
F0.08134027448
sVname
p5596
VSelf-efficacy
p5597
sasa(dp5598
Vcategory
p5599
Vpersonality
p5600
sVname
p5601
VExtraversion
p5602
sVsampling_error
p5603
F0.04936174232
sVid
p5604
VExtraversion
p5605
sVpercentage
p5606
F0.9423472228014996
sVchildren
p5607
(lp5608
(dp5609
Vcategory
p5610
Vpersonality
p5611
sVpercentage
p5612
F0.2293357940653718
sVid
p5613
VActivity level
p5614
sVsampling_error
p5615
F0.0684285576
sVname
p5616
VActivity level
p5617
sa(dp5618
Vcategory
p5619
Vpersonality
p5620
sVpercentage
p5621
F0.9625083401598842
sVid
p5622
VAssertiveness
p5623
sVsampling_error
p5624
F0.0726231472
sVname
p5625
VAssertiveness
p5626
sa(dp5627
Vcategory
p5628
Vpersonality
p5629
sVpercentage
p5630
F0.9024256263987841
sVid
p5631
VCheerfulness
p5632
sVsampling_error
p5633
F0.0909209168
sVname
p5634
VCheerfulness
p5635
sa(dp5636
Vcategory
p5637
Vpersonality
p5638
sVpercentage
p5639
F0.6637746874436857
sVid
p5640
VExcitement-seeking
p5641
sVsampling_error
p5642
F0.07494227344
sVname
p5643
VExcitement-seeking
p5644
sa(dp5645
Vcategory
p5646
Vpersonality
p5647
sVpercentage
p5648
F0.9423609252778313
sVid
p5649
VFriendliness
p5650
sVsampling_error
p5651
F0.06696091312
sVname
p5652
VOutgoing
p5653
sa(dp5654
Vcategory
p5655
Vpersonality
p5656
sVpercentage
p5657
F0.8161466238442394
sVid
p5658
VGregariousness
p5659
sVsampling_error
p5660
F0.052108980400000005
sVname
p5661
VGregariousness
p5662
sasa(dp5663
Vcategory
p5664
Vpersonality
p5665
sVname
p5666
VAgreeableness
p5667
sVsampling_error
p5668
F0.08637000144
sVid
p5669
VAgreeableness
p5670
sVpercentage
p5671
F0.9859418486163867
sVchildren
p5672
(lp5673
(dp5674
Vcategory
p5675
Vpersonality
p5676
sVpercentage
p5677
F0.6682217374558468
sVid
p5678
VAltruism
p5679
sVsampling_error
p5680
F0.06232995136
sVname
p5681
VAltruism
p5682
sa(dp5683
Vcategory
p5684
Vpersonality
p5685
sVpercentage
p5686
F0.2565744837842346
sVid
p5687
VCooperation
p5688
sVsampling_error
p5689
F0.07218316688
sVname
p5690
VCooperation
p5691
sa(dp5692
Vcategory
p5693
Vpersonality
p5694
sVpercentage
p5695
F0.9246238301033481
sVid
p5696
VModesty
p5697
sVsampling_error
p5698
F0.047727111839999996
sVname
p5699
VModesty
p5700
sa(dp5701
Vcategory
p5702
Vpersonality
p5703
sVpercentage
p5704
F0.9564044097414826
sVid
p5705
VMorality
p5706
sVsampling_error
p5707
F0.055639403600000005
sVname
p5708
VUncompromising
p5709
sa(dp5710
Vcategory
p5711
Vpersonality
p5712
sVpercentage
p5713
F0.7406669226825626
sVid
p5714
VSympathy
p5715
sVsampling_error
p5716
F0.08635022016
sVname
p5717
VSympathy
p5718
sa(dp5719
Vcategory
p5720
Vpersonality
p5721
sVpercentage
p5722
F0.7443328331572926
sVid
p5723
VTrust
p5724
sVsampling_error
p5725
F0.048641908319999996
sVname
p5726
VTrust
p5727
sasa(dp5728
Vcategory
p5729
Vpersonality
p5730
sVname
p5731
VEmotional range
p5732
sVsampling_error
p5733
F0.07868435536
sVid
p5734
VNeuroticism
p5735
sVpercentage
p5736
F0.8948536650844758
sVchildren
p5737
(lp5738
(dp5739
Vcategory
p5740
Vpersonality
p5741
sVpercentage
p5742
F0.906783208861814
sVid
p5743
VAnger
p5744
sVsampling_error
p5745
F0.08273936392
sVname
p5746
VFiery
p5747
sa(dp5748
Vcategory
p5749
Vpersonality
p5750
sVpercentage
p5751
F0.8272642268005737
sVid
p5752
VAnxiety
p5753
sVsampling_error
p5754
F0.047745984320000004
sVname
p5755
VProne to worry
p5756
sa(dp5757
Vcategory
p5758
Vpersonality
p5759
sVpercentage
p5760
F0.8679540207548951
sVid
p5761
VDepression
p5762
sVsampling_error
p5763
F0.05019962592
sVname
p5764
VMelancholy
p5765
sa(dp5766
Vcategory
p5767
Vpersonality
p5768
sVpercentage
p5769
F0.9197530617344106
sVid
p5770
VImmoderation
p5771
sVsampling_error
p5772
F0.046934232
sVname
p5773
VImmoderation
p5774
sa(dp5775
Vcategory
p5776
Vpersonality
p5777
sVpercentage
p5778
F0.2018146953344009
sVid
p5779
VSelf-consciousness
p5780
sVsampling_error
p5781
F0.04898088864
sVname
p5782
VSelf-consciousness
p5783
sa(dp5784
Vcategory
p5785
Vpersonality
p5786
sVpercentage
p5787
F0.8976353319922314
sVid
p5788
VVulnerability
p5789
sVsampling_error
p5790
F0.07402009576
sVname
p5791
VSusceptible to stress
p5792
sasasVid
p5793
VAgreeableness_parent
p5794
sVname
p5795
VAgreeableness
p5796
sasVid
p5797
Vpersonality
p5798
sVname
p5799
VBig 5
p5800
sa(dp5801
Vchildren
p5802
(lp5803
(dp5804
Vcategory
p5805
Vneeds
p5806
sVpercentage
p5807
F1.0
sVchildren
p5808
(lp5809
(dp5810
Vcategory
p5811
Vneeds
p5812
sVpercentage
p5813
F0.018309750135706918
sVid
p5814
VChallenge
p5815
sVsampling_error
p5816
F0.073718832
sVname
p5817
VChallenge
p5818
sa(dp5819
Vcategory
p5820
Vneeds
p5821
sVpercentage
p5822
F0.7199509072543067
sVid
p5823
VCloseness
p5824
sVsampling_error
p5825
F0.07298596856
sVname
p5826
VCloseness
p5827
sa(dp5828
Vcategory
p5829
Vneeds
p5830
sVpercentage
p5831
F0.5938381459154373
sVid
p5832
VCuriosity
p5833
sVsampling_error
p5834
F0.1037836844
sVname
p5835
VCuriosity
p5836
sa(dp5837
Vcategory
p5838
Vneeds
p5839
sVpercentage
p5840
F0.6640336415706428
sVid
p5841
VExcitement
p5842
sVsampling_error
p5843
F0.09391943176
sVname
p5844
VExcitement
p5845
sa(dp5846
Vcategory
p5847
Vneeds
p5848
sVpercentage
p5849
F1.0
sVid
p5850
VHarmony
p5851
sVsampling_error
p5852
F0.09322796344
sVname
p5853
VHarmony
p5854
sa(dp5855
Vcategory
p5856
Vneeds
p5857
sVpercentage
p5858
F0.13397104479825572
sVid
p5859
VIdeal
p5860
sVsampling_error
p5861
F0.08445182544
sVname
p5862
VIdeal
p5863
sa(dp5864
Vcategory
p5865
Vneeds
p5866
sVpercentage
p5867
F0.8370166376023513
sVid
p5868
VLiberty
p5869
sVsampling_error
p5870
F0.12583585184
sVname
p5871
VLiberty
p5872
sa(dp5873
Vcategory
p5874
Vneeds
p5875
sVpercentage
p5876
F0.9676385556176829
sVid
p5877
VLove
p5878
sVsampling_error
p5879
F0.08548794056
sVname
p5880
VLove
p5881
sa(dp5882
Vcategory
p5883
Vneeds
p5884
sVpercentage
p5885
F1.0
sVid
p5886
VPracticality
p5887
sVsampling_error
p5888
F0.07574476392
sVname
p5889
VPracticality
p5890
sa(dp5891
Vcategory
p5892
Vneeds
p5893
sVpercentage
p5894
F0.13778052288885873
sVid
p5895
VSelf-expression
p5896
sVsampling_error
p5897
F0.07208207752
sVname
p5898
VSelf-expression
p5899
sa(dp5900
Vcategory
p5901
Vneeds
p5902
sVpercentage
p5903
F0.5354418747810523
sVid
p5904
VStability
p5905
sVsampling_error
p5906
F0.09249321792
sVname
p5907
VStability
p5908
sa(dp5909
Vcategory
p5910
Vneeds
p5911
sVpercentage
p5912
F0.08989712260667443
sVid
p5913
VStructure
p5914
sVsampling_error
p5915
F0.06991967448
sVname
p5916
VStructure
p5917
sasVid
p5918
VHarmony_parent
p5919
sVname
p5920
VHarmony
p5921
sasVid
p5922
Vneeds
p5923
sVname
p5924
VNeeds
p5925
sa(dp5926
Vchildren
p5927
(lp5928
(dp5929
Vcategory
p5930
Vvalues
p5931
sVpercentage
p5932
F0.9724869486910668
sVchildren
p5933
(lp5934
(dp5935
Vcategory
p5936
Vvalues
p5937
sVpercentage
p5938
F0.0354079772945118
sVid
p5939
VConservation
p5940
sVsampling_error
p5941
F0.062449604719999996
sVname
p5942
VConservation
p5943
sa(dp5944
Vcategory
p5945
Vvalues
p5946
sVpercentage
p5947
F0.9724869486910668
sVid
p5948
VOpenness to change
p5949
sVsampling_error
p5950
F0.056652406
sVname
p5951
VOpenness to change
p5952
sa(dp5953
Vcategory
p5954
Vvalues
p5955
sVpercentage
p5956
F0.868022377497589
sVid
p5957
VHedonism
p5958
sVsampling_error
p5959
F0.1164584092
sVname
p5960
VHedonism
p5961
sa(dp5962
Vcategory
p5963
Vvalues
p5964
sVpercentage
p5965
F0.04001453804471726
sVid
p5966
VSelf-enhancement
p5967
sVsampling_error
p5968
F0.08924649448
sVname
p5969
VSelf-enhancement
p5970
sa(dp5971
Vcategory
p5972
Vvalues
p5973
sVpercentage
p5974
F0.9281569674889644
sVid
p5975
VSelf-transcendence
p5976
sVsampling_error
p5977
F0.066876174
sVname
p5978
VSelf-transcendence
p5979
sasVid
p5980
VOpenness to change_parent
p5981
sVname
p5982
VOpenness to change
p5983
sasVid
p5984
Vvalues
p5985
sVname
p5986
VValues
p5987
sasVid
p5988
Vr
p5989
sVname
p5990
Vroot
p5991
ssVid
p5992
V*UNKNOWN*
p5993
sVword_count
p5994
I5678
sVprocessed_lang
p5995
Ven
p5996
sa(dp5997
Vsource
p5998
V*UNKNOWN*
p5999
sVtree
p6000
(dp6001
Vchildren
p6002
(lp6003
(dp6004
Vchildren
p6005
(lp6006
(dp6007
Vcategory
p6008
Vpersonality
p6009
sVpercentage
p6010
F1.0
sVchildren
p6011
(lp6012
(dp6013
Vcategory
p6014
Vpersonality
p6015
sVname
p6016
VOpenness
p6017
sVsampling_error
p6018
F0.05190378928
sVid
p6019
VOpenness
p6020
sVpercentage
p6021
F0.0163406812739691
sVchildren
p6022
(lp6023
(dp6024
Vcategory
p6025
Vpersonality
p6026
sVpercentage
p6027
F0.049277675426824694
sVid
p6028
VAdventurousness
p6029
sVsampling_error
p6030
F0.04565275368
sVname
p6031
VAdventurousness
p6032
sa(dp6033
Vcategory
p6034
Vpersonality
p6035
sVpercentage
p6036
F0.02877053225640319
sVid
p6037
VArtistic interests
p6038
sVsampling_error
p6039
F0.09365820672
sVname
p6040
VArtistic interests
p6041
sa(dp6042
Vcategory
p6043
Vpersonality
p6044
sVpercentage
p6045
F0.8940652617715971
sVid
p6046
VEmotionality
p6047
sVsampling_error
p6048
F0.04369303352
sVname
p6049
VEmotionality
p6050
sa(dp6051
Vcategory
p6052
Vpersonality
p6053
sVpercentage
p6054
F0.009410880177019902
sVid
p6055
VImagination
p6056
sVsampling_error
p6057
F0.05658540296
sVname
p6058
VImagination
p6059
sa(dp6060
Vcategory
p6061
Vpersonality
p6062
sVpercentage
p6063
F0.0304553299974937
sVid
p6064
VIntellect
p6065
sVsampling_error
p6066
F0.0493634432
sVname
p6067
VIntellect
p6068
sa(dp6069
Vcategory
p6070
Vpersonality
p6071
sVpercentage
p6072
F0.023651803494032085
sVid
p6073
VLiberalism
p6074
sVsampling_error
p6075
F0.07492763544
sVname
p6076
VAuthority-challenging
p6077
sasa(dp6078
Vcategory
p6079
Vpersonality
p6080
sVname
p6081
VConscientiousness
p6082
sVsampling_error
p6083
F0.06755938407999999
sVid
p6084
VConscientiousness
p6085
sVpercentage
p6086
F0.013539072223532098
sVchildren
p6087
(lp6088
(dp6089
Vcategory
p6090
Vpersonality
p6091
sVpercentage
p6092
F0.009971452436757754
sVid
p6093
VAchievement striving
p6094
sVsampling_error
p6095
F0.08885804272
sVname
p6096
VAchievement striving
p6097
sa(dp6098
Vcategory
p6099
Vpersonality
p6100
sVpercentage
p6101
F0.0519568966398339
sVid
p6102
VCautiousness
p6103
sVsampling_error
p6104
F0.08264870288
sVname
p6105
VCautiousness
p6106
sa(dp6107
Vcategory
p6108
Vpersonality
p6109
sVpercentage
p6110
F0.11878062837979383
sVid
p6111
VDutifulness
p6112
sVsampling_error
p6113
F0.05399500312
sVname
p6114
VDutifulness
p6115
sa(dp6116
Vcategory
p6117
Vpersonality
p6118
sVpercentage
p6119
F0.8297017738733471
sVid
p6120
VOrderliness
p6121
sVsampling_error
p6122
F0.062429959199999996
sVname
p6123
VOrderliness
p6124
sa(dp6125
Vcategory
p6126
Vpersonality
p6127
sVpercentage
p6128
F0.025715028886408923
sVid
p6129
VSelf-discipline
p6130
sVsampling_error
p6131
F0.04276746368
sVname
p6132
VSelf-discipline
p6133
sa(dp6134
Vcategory
p6135
Vpersonality
p6136
sVpercentage
p6137
F0.1641161290382758
sVid
p6138
VSelf-efficacy
p6139
sVsampling_error
p6140
F0.08234531471999999
sVname
p6141
VSelf-efficacy
p6142
sasa(dp6143
Vcategory
p6144
Vpersonality
p6145
sVname
p6146
VExtraversion
p6147
sVsampling_error
p6148
F0.04970961832
sVid
p6149
VExtraversion
p6150
sVpercentage
p6151
F0.9804419915852518
sVchildren
p6152
(lp6153
(dp6154
Vcategory
p6155
Vpersonality
p6156
sVpercentage
p6157
F0.3049312809587115
sVid
p6158
VActivity level
p6159
sVsampling_error
p6160
F0.06909505552
sVname
p6161
VActivity level
p6162
sa(dp6163
Vcategory
p6164
Vpersonality
p6165
sVpercentage
p6166
F1.0
sVid
p6167
VAssertiveness
p6168
sVsampling_error
p6169
F0.07382284792
sVname
p6170
VAssertiveness
p6171
sa(dp6172
Vcategory
p6173
Vpersonality
p6174
sVpercentage
p6175
F0.9432263727341801
sVid
p6176
VCheerfulness
p6177
sVsampling_error
p6178
F0.09215199488
sVname
p6179
VCheerfulness
p6180
sa(dp6181
Vcategory
p6182
Vpersonality
p6183
sVpercentage
p6184
F0.8045000539037566
sVid
p6185
VExcitement-seeking
p6186
sVsampling_error
p6187
F0.07595817968
sVname
p6188
VExcitement-seeking
p6189
sa(dp6190
Vcategory
p6191
Vpersonality
p6192
sVpercentage
p6193
F0.9605015028134212
sVid
p6194
VFriendliness
p6195
sVsampling_error
p6196
F0.0672647392
sVname
p6197
VOutgoing
p6198
sa(dp6199
Vcategory
p6200
Vpersonality
p6201
sVpercentage
p6202
F0.9545257422433758
sVid
p6203
VGregariousness
p6204
sVsampling_error
p6205
F0.05294480864
sVname
p6206
VGregariousness
p6207
sasa(dp6208
Vcategory
p6209
Vpersonality
p6210
sVname
p6211
VAgreeableness
p6212
sVsampling_error
p6213
F0.08714660664
sVid
p6214
VAgreeableness
p6215
sVpercentage
p6216
F1.0
sVchildren
p6217
(lp6218
(dp6219
Vcategory
p6220
Vpersonality
p6221
sVpercentage
p6222
F0.6155631066600128
sVid
p6223
VAltruism
p6224
sVsampling_error
p6225
F0.06293248968
sVname
p6226
VAltruism
p6227
sa(dp6228
Vcategory
p6229
Vpersonality
p6230
sVpercentage
p6231
F0.12313029179889558
sVid
p6232
VCooperation
p6233
sVsampling_error
p6234
F0.07237551152
sVname
p6235
VCooperation
p6236
sa(dp6237
Vcategory
p6238
Vpersonality
p6239
sVpercentage
p6240
F0.9093670421927255
sVid
p6241
VModesty
p6242
sVsampling_error
p6243
F0.0485352056
sVname
p6244
VModesty
p6245
sa(dp6246
Vcategory
p6247
Vpersonality
p6248
sVpercentage
p6249
F0.9603451342347651
sVid
p6250
VMorality
p6251
sVsampling_error
p6252
F0.05614880952
sVname
p6253
VUncompromising
p6254
sa(dp6255
Vcategory
p6256
Vpersonality
p6257
sVpercentage
p6258
F0.6977261168395916
sVid
p6259
VSympathy
p6260
sVsampling_error
p6261
F0.08747618336
sVname
p6262
VSympathy
p6263
sa(dp6264
Vcategory
p6265
Vpersonality
p6266
sVpercentage
p6267
F0.6789830923271148
sVid
p6268
VTrust
p6269
sVsampling_error
p6270
F0.048490381199999995
sVname
p6271
VTrust
p6272
sasa(dp6273
Vcategory
p6274
Vpersonality
p6275
sVname
p6276
VEmotional range
p6277
sVsampling_error
p6278
F0.07890787208
sVid
p6279
VNeuroticism
p6280
sVpercentage
p6281
F0.8934725310183159
sVchildren
p6282
(lp6283
(dp6284
Vcategory
p6285
Vpersonality
p6286
sVpercentage
p6287
F0.9443800139862124
sVid
p6288
VAnger
p6289
sVsampling_error
p6290
F0.08328315176
sVname
p6291
VFiery
p6292
sa(dp6293
Vcategory
p6294
Vpersonality
p6295
sVpercentage
p6296
F0.8487552511338888
sVid
p6297
VAnxiety
p6298
sVsampling_error
p6299
F0.04835367528
sVname
p6300
VProne to worry
p6301
sa(dp6302
Vcategory
p6303
Vpersonality
p6304
sVpercentage
p6305
F0.9546499375470233
sVid
p6306
VDepression
p6307
sVsampling_error
p6308
F0.05070857256
sVname
p6309
VMelancholy
p6310
sa(dp6311
Vcategory
p6312
Vpersonality
p6313
sVpercentage
p6314
F0.9025540585232918
sVid
p6315
VImmoderation
p6316
sVsampling_error
p6317
F0.047792060399999996
sVname
p6318
VImmoderation
p6319
sa(dp6320
Vcategory
p6321
Vpersonality
p6322
sVpercentage
p6323
F0.11181546332343288
sVid
p6324
VSelf-consciousness
p6325
sVsampling_error
p6326
F0.04966988336
sVname
p6327
VSelf-consciousness
p6328
sa(dp6329
Vcategory
p6330
Vpersonality
p6331
sVpercentage
p6332
F0.8970918087441699
sVid
p6333
VVulnerability
p6334
sVsampling_error
p6335
F0.07490982808
sVname
p6336
VSusceptible to stress
p6337
sasasVid
p6338
VAgreeableness_parent
p6339
sVname
p6340
VAgreeableness
p6341
sasVid
p6342
Vpersonality
p6343
sVname
p6344
VBig 5
p6345
sa(dp6346
Vchildren
p6347
(lp6348
(dp6349
Vcategory
p6350
Vneeds
p6351
sVpercentage
p6352
F1.0
sVchildren
p6353
(lp6354
(dp6355
Vcategory
p6356
Vneeds
p6357
sVpercentage
p6358
F0.009765262142059512
sVid
p6359
VChallenge
p6360
sVsampling_error
p6361
F0.07424032104
sVname
p6362
VChallenge
p6363
sa(dp6364
Vcategory
p6365
Vneeds
p6366
sVpercentage
p6367
F0.7248399350254316
sVid
p6368
VCloseness
p6369
sVsampling_error
p6370
F0.0735215616
sVname
p6371
VCloseness
p6372
sa(dp6373
Vcategory
p6374
Vneeds
p6375
sVpercentage
p6376
F0.42913471509770207
sVid
p6377
VCuriosity
p6378
sVsampling_error
p6379
F0.10543992944
sVname
p6380
VCuriosity
p6381
sa(dp6382
Vcategory
p6383
Vneeds
p6384
sVpercentage
p6385
F0.6223889096371266
sVid
p6386
VExcitement
p6387
sVsampling_error
p6388
F0.09531681248
sVname
p6389
VExcitement
p6390
sa(dp6391
Vcategory
p6392
Vneeds
p6393
sVpercentage
p6394
F1.0
sVid
p6395
VHarmony
p6396
sVsampling_error
p6397
F0.09490142423999999
sVname
p6398
VHarmony
p6399
sa(dp6400
Vcategory
p6401
Vneeds
p6402
sVpercentage
p6403
F0.08181800261879486
sVid
p6404
VIdeal
p6405
sVsampling_error
p6406
F0.08525258656
sVname
p6407
VIdeal
p6408
sa(dp6409
Vcategory
p6410
Vneeds
p6411
sVpercentage
p6412
F0.8281811166926143
sVid
p6413
VLiberty
p6414
sVsampling_error
p6415
F0.12670693752
sVname
p6416
VLiberty
p6417
sa(dp6418
Vcategory
p6419
Vneeds
p6420
sVpercentage
p6421
F0.9732508981933067
sVid
p6422
VLove
p6423
sVsampling_error
p6424
F0.08655390144
sVname
p6425
VLove
p6426
sa(dp6427
Vcategory
p6428
Vneeds
p6429
sVpercentage
p6430
F1.0
sVid
p6431
VPracticality
p6432
sVsampling_error
p6433
F0.07662880272
sVname
p6434
VPracticality
p6435
sa(dp6436
Vcategory
p6437
Vneeds
p6438
sVpercentage
p6439
F0.053831085978250766
sVid
p6440
VSelf-expression
p6441
sVsampling_error
p6442
F0.07212637576
sVname
p6443
VSelf-expression
p6444
sa(dp6445
Vcategory
p6446
Vneeds
p6447
sVpercentage
p6448
F0.4196280806290197
sVid
p6449
VStability
p6450
sVsampling_error
p6451
F0.09400256928
sVname
p6452
VStability
p6453
sa(dp6454
Vcategory
p6455
Vneeds
p6456
sVpercentage
p6457
F0.03125309563223471
sVid
p6458
VStructure
p6459
sVsampling_error
p6460
F0.07028953455999999
sVname
p6461
VStructure
p6462
sasVid
p6463
VHarmony_parent
p6464
sVname
p6465
VHarmony
p6466
sasVid
p6467
Vneeds
p6468
sVname
p6469
VNeeds
p6470
sa(dp6471
Vchildren
p6472
(lp6473
(dp6474
Vcategory
p6475
Vvalues
p6476
sVpercentage
p6477
F0.024793247602517707
sVchildren
p6478
(lp6479
(dp6480
Vcategory
p6481
Vvalues
p6482
sVpercentage
p6483
F0.024793247602517707
sVid
p6484
VConservation
p6485
sVsampling_error
p6486
F0.06209174504
sVname
p6487
VConservation
p6488
sa(dp6489
Vcategory
p6490
Vvalues
p6491
sVpercentage
p6492
F0.9605223983581365
sVid
p6493
VOpenness to change
p6494
sVsampling_error
p6495
F0.05766697536
sVname
p6496
VOpenness to change
p6497
sa(dp6498
Vcategory
p6499
Vvalues
p6500
sVpercentage
p6501
F0.9296808900424766
sVid
p6502
VHedonism
p6503
sVsampling_error
p6504
F0.1174648984
sVname
p6505
VHedonism
p6506
sa(dp6507
Vcategory
p6508
Vvalues
p6509
sVpercentage
p6510
F0.08146842331492402
sVid
p6511
VSelf-enhancement
p6512
sVsampling_error
p6513
F0.09028286176
sVname
p6514
VSelf-enhancement
p6515
sa(dp6516
Vcategory
p6517
Vvalues
p6518
sVpercentage
p6519
F0.8849596889751778
sVid
p6520
VSelf-transcendence
p6521
sVsampling_error
p6522
F0.06767888368
sVname
p6523
VSelf-transcendence
p6524
sasVid
p6525
VConservation_parent
p6526
sVname
p6527
VConservation
p6528
sasVid
p6529
Vvalues
p6530
sVname
p6531
VValues
p6532
sasVid
p6533
Vr
p6534
sVname
p6535
Vroot
p6536
ssVid
p6537
V*UNKNOWN*
p6538
sVword_count
p6539
I4848
sVprocessed_lang
p6540
Ven
p6541
sa(dp6542
Vsource
p6543
V*UNKNOWN*
p6544
sVtree
p6545
(dp6546
Vchildren
p6547
(lp6548
(dp6549
Vchildren
p6550
(lp6551
(dp6552
Vcategory
p6553
Vpersonality
p6554
sVpercentage
p6555
F0.9813954343293008
sVchildren
p6556
(lp6557
(dp6558
Vcategory
p6559
Vpersonality
p6560
sVname
p6561
VOpenness
p6562
sVsampling_error
p6563
F0.052543101919999995
sVid
p6564
VOpenness
p6565
sVpercentage
p6566
F0.06880568343856694
sVchildren
p6567
(lp6568
(dp6569
Vcategory
p6570
Vpersonality
p6571
sVpercentage
p6572
F0.10088677230275271
sVid
p6573
VAdventurousness
p6574
sVsampling_error
p6575
F0.0460255824
sVname
p6576
VAdventurousness
p6577
sa(dp6578
Vcategory
p6579
Vpersonality
p6580
sVpercentage
p6581
F0.04912190035522564
sVid
p6582
VArtistic interests
p6583
sVsampling_error
p6584
F0.09418108328000001
sVname
p6585
VArtistic interests
p6586
sa(dp6587
Vcategory
p6588
Vpersonality
p6589
sVpercentage
p6590
F0.8498179875960323
sVid
p6591
VEmotionality
p6592
sVsampling_error
p6593
F0.04380481864
sVname
p6594
VEmotionality
p6595
sa(dp6596
Vcategory
p6597
Vpersonality
p6598
sVpercentage
p6599
F0.0224024349012128
sVid
p6600
VImagination
p6601
sVsampling_error
p6602
F0.05694265424
sVname
p6603
VImagination
p6604
sa(dp6605
Vcategory
p6606
Vpersonality
p6607
sVpercentage
p6608
F0.10274713190403566
sVid
p6609
VIntellect
p6610
sVsampling_error
p6611
F0.04969378728
sVname
p6612
VIntellect
p6613
sa(dp6614
Vcategory
p6615
Vpersonality
p6616
sVpercentage
p6617
F0.04570610380468803
sVid
p6618
VLiberalism
p6619
sVsampling_error
p6620
F0.07557071848000001
sVname
p6621
VAuthority-challenging
p6622
sasa(dp6623
Vcategory
p6624
Vpersonality
p6625
sVname
p6626
VConscientiousness
p6627
sVsampling_error
p6628
F0.06745599208
sVid
p6629
VConscientiousness
p6630
sVpercentage
p6631
F0.033744279808813595
sVchildren
p6632
(lp6633
(dp6634
Vcategory
p6635
Vpersonality
p6636
sVpercentage
p6637
F0.02320320666445182
sVid
p6638
VAchievement striving
p6639
sVsampling_error
p6640
F0.08962670807999999
sVname
p6641
VAchievement striving
p6642
sa(dp6643
Vcategory
p6644
Vpersonality
p6645
sVpercentage
p6646
F0.11567841538448832
sVid
p6647
VCautiousness
p6648
sVsampling_error
p6649
F0.08310127176
sVname
p6650
VCautiousness
p6651
sa(dp6652
Vcategory
p6653
Vpersonality
p6654
sVpercentage
p6655
F0.11209373542574935
sVid
p6656
VDutifulness
p6657
sVsampling_error
p6658
F0.05439392904
sVname
p6659
VDutifulness
p6660
sa(dp6661
Vcategory
p6662
Vpersonality
p6663
sVpercentage
p6664
F0.7559836574684841
sVid
p6665
VOrderliness
p6666
sVsampling_error
p6667
F0.06294784144
sVname
p6668
VOrderliness
p6669
sa(dp6670
Vcategory
p6671
Vpersonality
p6672
sVpercentage
p6673
F0.01369330470321363
sVid
p6674
VSelf-discipline
p6675
sVsampling_error
p6676
F0.042213411119999995
sVname
p6677
VSelf-discipline
p6678
sa(dp6679
Vcategory
p6680
Vpersonality
p6681
sVpercentage
p6682
F0.13612213738032858
sVid
p6683
VSelf-efficacy
p6684
sVsampling_error
p6685
F0.08235822408
sVname
p6686
VSelf-efficacy
p6687
sasa(dp6688
Vcategory
p6689
Vpersonality
p6690
sVname
p6691
VExtraversion
p6692
sVsampling_error
p6693
F0.050136486
sVid
p6694
VExtraversion
p6695
sVpercentage
p6696
F0.9638387491220815
sVchildren
p6697
(lp6698
(dp6699
Vcategory
p6700
Vpersonality
p6701
sVpercentage
p6702
F0.12918319533030698
sVid
p6703
VActivity level
p6704
sVsampling_error
p6705
F0.06965967848
sVname
p6706
VActivity level
p6707
sa(dp6708
Vcategory
p6709
Vpersonality
p6710
sVpercentage
p6711
F0.985573026355582
sVid
p6712
VAssertiveness
p6713
sVsampling_error
p6714
F0.07449619032
sVname
p6715
VAssertiveness
p6716
sa(dp6717
Vcategory
p6718
Vpersonality
p6719
sVpercentage
p6720
F0.8955617293509331
sVid
p6721
VCheerfulness
p6722
sVsampling_error
p6723
F0.09312299008
sVname
p6724
VCheerfulness
p6725
sa(dp6726
Vcategory
p6727
Vpersonality
p6728
sVpercentage
p6729
F0.649329148018397
sVid
p6730
VExcitement-seeking
p6731
sVsampling_error
p6732
F0.07530480487999999
sVname
p6733
VExcitement-seeking
p6734
sa(dp6735
Vcategory
p6736
Vpersonality
p6737
sVpercentage
p6738
F0.9230952972231794
sVid
p6739
VFriendliness
p6740
sVsampling_error
p6741
F0.0676260928
sVname
p6742
VOutgoing
p6743
sa(dp6744
Vcategory
p6745
Vpersonality
p6746
sVpercentage
p6747
F0.8633346581711658
sVid
p6748
VGregariousness
p6749
sVsampling_error
p6750
F0.052403061599999995
sVname
p6751
VGregariousness
p6752
sasa(dp6753
Vcategory
p6754
Vpersonality
p6755
sVname
p6756
VAgreeableness
p6757
sVsampling_error
p6758
F0.08789642503999999
sVid
p6759
VAgreeableness
p6760
sVpercentage
p6761
F0.9813954343293008
sVchildren
p6762
(lp6763
(dp6764
Vcategory
p6765
Vpersonality
p6766
sVpercentage
p6767
F0.5184998392999077
sVid
p6768
VAltruism
p6769
sVsampling_error
p6770
F0.06331769864
sVname
p6771
VAltruism
p6772
sa(dp6773
Vcategory
p6774
Vpersonality
p6775
sVpercentage
p6776
F0.23060689661365943
sVid
p6777
VCooperation
p6778
sVsampling_error
p6779
F0.07267065672
sVname
p6780
VCooperation
p6781
sa(dp6782
Vcategory
p6783
Vpersonality
p6784
sVpercentage
p6785
F0.7891491420231872
sVid
p6786
VModesty
p6787
sVsampling_error
p6788
F0.04913791624
sVname
p6789
VModesty
p6790
sa(dp6791
Vcategory
p6792
Vpersonality
p6793
sVpercentage
p6794
F0.8976194723431963
sVid
p6795
VMorality
p6796
sVsampling_error
p6797
F0.05664890688
sVname
p6798
VUncompromising
p6799
sa(dp6800
Vcategory
p6801
Vpersonality
p6802
sVpercentage
p6803
F0.8347074194629102
sVid
p6804
VSympathy
p6805
sVsampling_error
p6806
F0.08765963912
sVname
p6807
VSympathy
p6808
sa(dp6809
Vcategory
p6810
Vpersonality
p6811
sVpercentage
p6812
F0.5234359358007146
sVid
p6813
VTrust
p6814
sVsampling_error
p6815
F0.04853392024
sVname
p6816
VTrust
p6817
sasa(dp6818
Vcategory
p6819
Vpersonality
p6820
sVname
p6821
VEmotional range
p6822
sVsampling_error
p6823
F0.0796788068
sVid
p6824
VNeuroticism
p6825
sVpercentage
p6826
F0.8239892990573349
sVchildren
p6827
(lp6828
(dp6829
Vcategory
p6830
Vpersonality
p6831
sVpercentage
p6832
F0.9096169083673766
sVid
p6833
VAnger
p6834
sVsampling_error
p6835
F0.08404878655999999
sVname
p6836
VFiery
p6837
sa(dp6838
Vcategory
p6839
Vpersonality
p6840
sVpercentage
p6841
F0.7871068030883239
sVid
p6842
VAnxiety
p6843
sVsampling_error
p6844
F0.04889584288
sVname
p6845
VProne to worry
p6846
sa(dp6847
Vcategory
p6848
Vpersonality
p6849
sVpercentage
p6850
F0.9254783207582487
sVid
p6851
VDepression
p6852
sVsampling_error
p6853
F0.0513483348
sVname
p6854
VMelancholy
p6855
sa(dp6856
Vcategory
p6857
Vpersonality
p6858
sVpercentage
p6859
F0.8649819411616666
sVid
p6860
VImmoderation
p6861
sVsampling_error
p6862
F0.04788895128
sVname
p6863
VImmoderation
p6864
sa(dp6865
Vcategory
p6866
Vpersonality
p6867
sVpercentage
p6868
F0.1861660391791315
sVid
p6869
VSelf-consciousness
p6870
sVsampling_error
p6871
F0.0502065524
sVname
p6872
VSelf-consciousness
p6873
sa(dp6874
Vcategory
p6875
Vpersonality
p6876
sVpercentage
p6877
F0.773437238475605
sVid
p6878
VVulnerability
p6879
sVsampling_error
p6880
F0.07579973584
sVname
p6881
VSusceptible to stress
p6882
sasasVid
p6883
VAgreeableness_parent
p6884
sVname
p6885
VAgreeableness
p6886
sasVid
p6887
Vpersonality
p6888
sVname
p6889
VBig 5
p6890
sa(dp6891
Vchildren
p6892
(lp6893
(dp6894
Vcategory
p6895
Vneeds
p6896
sVpercentage
p6897
F1.0
sVchildren
p6898
(lp6899
(dp6900
Vcategory
p6901
Vneeds
p6902
sVpercentage
p6903
F0.02361580470049042
sVid
p6904
VChallenge
p6905
sVsampling_error
p6906
F0.07500383031999999
sVname
p6907
VChallenge
p6908
sa(dp6909
Vcategory
p6910
Vneeds
p6911
sVpercentage
p6912
F0.7206271845015007
sVid
p6913
VCloseness
p6914
sVsampling_error
p6915
F0.0741363908
sVname
p6916
VCloseness
p6917
sa(dp6918
Vcategory
p6919
Vneeds
p6920
sVpercentage
p6921
F0.47656265431211114
sVid
p6922
VCuriosity
p6923
sVsampling_error
p6924
F0.10649251944
sVname
p6925
VCuriosity
p6926
sa(dp6927
Vcategory
p6928
Vneeds
p6929
sVpercentage
p6930
F0.6151465645969657
sVid
p6931
VExcitement
p6932
sVsampling_error
p6933
F0.09595641176
sVname
p6934
VExcitement
p6935
sa(dp6936
Vcategory
p6937
Vneeds
p6938
sVpercentage
p6939
F1.0
sVid
p6940
VHarmony
p6941
sVsampling_error
p6942
F0.09601083504
sVname
p6943
VHarmony
p6944
sa(dp6945
Vcategory
p6946
Vneeds
p6947
sVpercentage
p6948
F0.12095036471643265
sVid
p6949
VIdeal
p6950
sVsampling_error
p6951
F0.08594872192
sVname
p6952
VIdeal
p6953
sa(dp6954
Vcategory
p6955
Vneeds
p6956
sVpercentage
p6957
F0.8015332627718996
sVid
p6958
VLiberty
p6959
sVsampling_error
p6960
F0.12854123511999999
sVname
p6961
VLiberty
p6962
sa(dp6963
Vcategory
p6964
Vneeds
p6965
sVpercentage
p6966
F0.959177300465849
sVid
p6967
VLove
p6968
sVsampling_error
p6969
F0.08792512415999999
sVname
p6970
VLove
p6971
sa(dp6972
Vcategory
p6973
Vneeds
p6974
sVpercentage
p6975
F0.9887290814892706
sVid
p6976
VPracticality
p6977
sVsampling_error
p6978
F0.07696487376
sVname
p6979
VPracticality
p6980
sa(dp6981
Vcategory
p6982
Vneeds
p6983
sVpercentage
p6984
F0.064104823813911
sVid
p6985
VSelf-expression
p6986
sVsampling_error
p6987
F0.07264197168
sVname
p6988
VSelf-expression
p6989
sa(dp6990
Vcategory
p6991
Vneeds
p6992
sVpercentage
p6993
F0.4649795762015566
sVid
p6994
VStability
p6995
sVsampling_error
p6996
F0.09442578768
sVname
p6997
VStability
p6998
sa(dp6999
Vcategory
p7000
Vneeds
p7001
sVpercentage
p7002
F0.069513063346571
sVid
p7003
VStructure
p7004
sVsampling_error
p7005
F0.07070895903999999
sVname
p7006
VStructure
p7007
sasVid
p7008
VHarmony_parent
p7009
sVname
p7010
VHarmony
p7011
sasVid
p7012
Vneeds
p7013
sVname
p7014
VNeeds
p7015
sa(dp7016
Vchildren
p7017
(lp7018
(dp7019
Vcategory
p7020
Vvalues
p7021
sVpercentage
p7022
F0.013916308197926913
sVchildren
p7023
(lp7024
(dp7025
Vcategory
p7026
Vvalues
p7027
sVpercentage
p7028
F0.013916308197926913
sVid
p7029
VConservation
p7030
sVsampling_error
p7031
F0.06221824856
sVname
p7032
VConservation
p7033
sa(dp7034
Vcategory
p7035
Vvalues
p7036
sVpercentage
p7037
F0.9605834031372729
sVid
p7038
VOpenness to change
p7039
sVsampling_error
p7040
F0.05760896504
sVname
p7041
VOpenness to change
p7042
sa(dp7043
Vcategory
p7044
Vvalues
p7045
sVpercentage
p7046
F0.8501316040173805
sVid
p7047
VHedonism
p7048
sVsampling_error
p7049
F0.11880264544000001
sVname
p7050
VHedonism
p7051
sa(dp7052
Vcategory
p7053
Vvalues
p7054
sVpercentage
p7055
F0.12126665235567594
sVid
p7056
VSelf-enhancement
p7057
sVsampling_error
p7058
F0.0914282624
sVname
p7059
VSelf-enhancement
p7060
sa(dp7061
Vcategory
p7062
Vvalues
p7063
sVpercentage
p7064
F0.8926998743840502
sVid
p7065
VSelf-transcendence
p7066
sVsampling_error
p7067
F0.06854770616
sVname
p7068
VSelf-transcendence
p7069
sasVid
p7070
VConservation_parent
p7071
sVname
p7072
VConservation
p7073
sasVid
p7074
Vvalues
p7075
sVname
p7076
VValues
p7077
sasVid
p7078
Vr
p7079
sVname
p7080
Vroot
p7081
ssVid
p7082
V*UNKNOWN*
p7083
sVword_count
p7084
I4486
sVprocessed_lang
p7085
Ven
p7086
sa(dp7087
Vsource
p7088
V*UNKNOWN*
p7089
sVtree
p7090
(dp7091
Vchildren
p7092
(lp7093
(dp7094
Vchildren
p7095
(lp7096
(dp7097
Vcategory
p7098
Vpersonality
p7099
sVpercentage
p7100
F0.9785522100081853
sVchildren
p7101
(lp7102
(dp7103
Vcategory
p7104
Vpersonality
p7105
sVname
p7106
VOpenness
p7107
sVsampling_error
p7108
F0.0504255336
sVid
p7109
VOpenness
p7110
sVpercentage
p7111
F0.06317989396028977
sVchildren
p7112
(lp7113
(dp7114
Vcategory
p7115
Vpersonality
p7116
sVpercentage
p7117
F0.08027227400594054
sVid
p7118
VAdventurousness
p7119
sVsampling_error
p7120
F0.04443465488
sVname
p7121
VAdventurousness
p7122
sa(dp7123
Vcategory
p7124
Vpersonality
p7125
sVpercentage
p7126
F0.009948760789047134
sVid
p7127
VArtistic interests
p7128
sVsampling_error
p7129
F0.09158941144
sVname
p7130
VArtistic interests
p7131
sa(dp7132
Vcategory
p7133
Vpersonality
p7134
sVpercentage
p7135
F0.8927306405823525
sVid
p7136
VEmotionality
p7137
sVsampling_error
p7138
F0.04088824024
sVname
p7139
VEmotionality
p7140
sa(dp7141
Vcategory
p7142
Vpersonality
p7143
sVpercentage
p7144
F0.009596151092172015
sVid
p7145
VImagination
p7146
sVsampling_error
p7147
F0.055120852399999996
sVname
p7148
VImagination
p7149
sa(dp7150
Vcategory
p7151
Vpersonality
p7152
sVpercentage
p7153
F0.057841680051865116
sVid
p7154
VIntellect
p7155
sVsampling_error
p7156
F0.047816688239999995
sVname
p7157
VIntellect
p7158
sa(dp7159
Vcategory
p7160
Vpersonality
p7161
sVpercentage
p7162
F0.20670746747573945
sVid
p7163
VLiberalism
p7164
sVsampling_error
p7165
F0.07372389544
sVname
p7166
VAuthority-challenging
p7167
sasa(dp7168
Vcategory
p7169
Vpersonality
p7170
sVname
p7171
VConscientiousness
p7172
sVsampling_error
p7173
F0.06406235224
sVid
p7174
VConscientiousness
p7175
sVpercentage
p7176
F0.03811563683502524
sVchildren
p7177
(lp7178
(dp7179
Vcategory
p7180
Vpersonality
p7181
sVpercentage
p7182
F0.02970065356522307
sVid
p7183
VAchievement striving
p7184
sVsampling_error
p7185
F0.086865256
sVname
p7186
VAchievement striving
p7187
sa(dp7188
Vcategory
p7189
Vpersonality
p7190
sVpercentage
p7191
F0.13837947524297073
sVid
p7192
VCautiousness
p7193
sVsampling_error
p7194
F0.07997224168
sVname
p7195
VCautiousness
p7196
sa(dp7197
Vcategory
p7198
Vpersonality
p7199
sVpercentage
p7200
F0.2548710899052865
sVid
p7201
VDutifulness
p7202
sVsampling_error
p7203
F0.053407652480000005
sVname
p7204
VDutifulness
p7205
sa(dp7206
Vcategory
p7207
Vpersonality
p7208
sVpercentage
p7209
F0.9527958396242109
sVid
p7210
VOrderliness
p7211
sVsampling_error
p7212
F0.061090646400000004
sVname
p7213
VOrderliness
p7214
sa(dp7215
Vcategory
p7216
Vpersonality
p7217
sVpercentage
p7218
F0.021261947221166855
sVid
p7219
VSelf-discipline
p7220
sVsampling_error
p7221
F0.04157188712
sVname
p7222
VSelf-discipline
p7223
sa(dp7224
Vcategory
p7225
Vpersonality
p7226
sVpercentage
p7227
F0.2522962222398458
sVid
p7228
VSelf-efficacy
p7229
sVsampling_error
p7230
F0.07991544976
sVname
p7231
VSelf-efficacy
p7232
sasa(dp7233
Vcategory
p7234
Vpersonality
p7235
sVname
p7236
VExtraversion
p7237
sVsampling_error
p7238
F0.04805103192
sVid
p7239
VExtraversion
p7240
sVpercentage
p7241
F0.7629611070323088
sVchildren
p7242
(lp7243
(dp7244
Vcategory
p7245
Vpersonality
p7246
sVpercentage
p7247
F0.30397063479822223
sVid
p7248
VActivity level
p7249
sVsampling_error
p7250
F0.067166304
sVname
p7251
VActivity level
p7252
sa(dp7253
Vcategory
p7254
Vpersonality
p7255
sVpercentage
p7256
F0.9039050603630596
sVid
p7257
VAssertiveness
p7258
sVsampling_error
p7259
F0.07145536631999999
sVname
p7260
VAssertiveness
p7261
sa(dp7262
Vcategory
p7263
Vpersonality
p7264
sVpercentage
p7265
F0.7937153025339417
sVid
p7266
VCheerfulness
p7267
sVsampling_error
p7268
F0.08930404592
sVname
p7269
VCheerfulness
p7270
sa(dp7271
Vcategory
p7272
Vpersonality
p7273
sVpercentage
p7274
F0.4099431802514811
sVid
p7275
VExcitement-seeking
p7276
sVsampling_error
p7277
F0.07364057848
sVname
p7278
VExcitement-seeking
p7279
sa(dp7280
Vcategory
p7281
Vpersonality
p7282
sVpercentage
p7283
F0.7914249909321481
sVid
p7284
VFriendliness
p7285
sVsampling_error
p7286
F0.06573121504
sVname
p7287
VOutgoing
p7288
sa(dp7289
Vcategory
p7290
Vpersonality
p7291
sVpercentage
p7292
F0.47622284506724166
sVid
p7293
VGregariousness
p7294
sVsampling_error
p7295
F0.05096077408
sVname
p7296
VGregariousness
p7297
sasa(dp7298
Vcategory
p7299
Vpersonality
p7300
sVname
p7301
VAgreeableness
p7302
sVsampling_error
p7303
F0.0859238856
sVid
p7304
VAgreeableness
p7305
sVpercentage
p7306
F0.9785522100081853
sVchildren
p7307
(lp7308
(dp7309
Vcategory
p7310
Vpersonality
p7311
sVpercentage
p7312
F0.5279713398118728
sVid
p7313
VAltruism
p7314
sVsampling_error
p7315
F0.06142959128
sVname
p7316
VAltruism
p7317
sa(dp7318
Vcategory
p7319
Vpersonality
p7320
sVpercentage
p7321
F0.4803230325892927
sVid
p7322
VCooperation
p7323
sVsampling_error
p7324
F0.07084122672
sVname
p7325
VCooperation
p7326
sa(dp7327
Vcategory
p7328
Vpersonality
p7329
sVpercentage
p7330
F0.9338138273144181
sVid
p7331
VModesty
p7332
sVsampling_error
p7333
F0.0473216708
sVname
p7334
VModesty
p7335
sa(dp7336
Vcategory
p7337
Vpersonality
p7338
sVpercentage
p7339
F0.9719839706810215
sVid
p7340
VMorality
p7341
sVsampling_error
p7342
F0.0547673964
sVname
p7343
VUncompromising
p7344
sa(dp7345
Vcategory
p7346
Vpersonality
p7347
sVpercentage
p7348
F0.8708721575576593
sVid
p7349
VSympathy
p7350
sVsampling_error
p7351
F0.08549525192
sVname
p7352
VSympathy
p7353
sa(dp7354
Vcategory
p7355
Vpersonality
p7356
sVpercentage
p7357
F0.8184331749134617
sVid
p7358
VTrust
p7359
sVsampling_error
p7360
F0.04758811912
sVname
p7361
VTrust
p7362
sasa(dp7363
Vcategory
p7364
Vpersonality
p7365
sVname
p7366
VEmotional range
p7367
sVsampling_error
p7368
F0.07813945128
sVid
p7369
VNeuroticism
p7370
sVpercentage
p7371
F0.9473051248139798
sVchildren
p7372
(lp7373
(dp7374
Vcategory
p7375
Vpersonality
p7376
sVpercentage
p7377
F0.9482068121689804
sVid
p7378
VAnger
p7379
sVsampling_error
p7380
F0.08271842376
sVname
p7381
VFiery
p7382
sa(dp7383
Vcategory
p7384
Vpersonality
p7385
sVpercentage
p7386
F0.8748981770690062
sVid
p7387
VAnxiety
p7388
sVsampling_error
p7389
F0.04681276912
sVname
p7390
VProne to worry
p7391
sa(dp7392
Vcategory
p7393
Vpersonality
p7394
sVpercentage
p7395
F0.9027631508692388
sVid
p7396
VDepression
p7397
sVsampling_error
p7398
F0.04902714784
sVname
p7399
VMelancholy
p7400
sa(dp7401
Vcategory
p7402
Vpersonality
p7403
sVpercentage
p7404
F0.9177160650994711
sVid
p7405
VImmoderation
p7406
sVsampling_error
p7407
F0.04584216496
sVname
p7408
VImmoderation
p7409
sa(dp7410
Vcategory
p7411
Vpersonality
p7412
sVpercentage
p7413
F0.4936698571710336
sVid
p7414
VSelf-consciousness
p7415
sVsampling_error
p7416
F0.04800850952
sVname
p7417
VSelf-consciousness
p7418
sa(dp7419
Vcategory
p7420
Vpersonality
p7421
sVpercentage
p7422
F0.9645245835635805
sVid
p7423
VVulnerability
p7424
sVsampling_error
p7425
F0.07324143024
sVname
p7426
VSusceptible to stress
p7427
sasasVid
p7428
VAgreeableness_parent
p7429
sVname
p7430
VAgreeableness
p7431
sasVid
p7432
Vpersonality
p7433
sVname
p7434
VBig 5
p7435
sa(dp7436
Vchildren
p7437
(lp7438
(dp7439
Vcategory
p7440
Vneeds
p7441
sVpercentage
p7442
F1.0
sVchildren
p7443
(lp7444
(dp7445
Vcategory
p7446
Vneeds
p7447
sVpercentage
p7448
F0.01994203835054661
sVid
p7449
VChallenge
p7450
sVsampling_error
p7451
F0.07169694727999999
sVname
p7452
VChallenge
p7453
sa(dp7454
Vcategory
p7455
Vneeds
p7456
sVpercentage
p7457
F0.589890236246803
sVid
p7458
VCloseness
p7459
sVsampling_error
p7460
F0.07131270776
sVname
p7461
VCloseness
p7462
sa(dp7463
Vcategory
p7464
Vneeds
p7465
sVpercentage
p7466
F0.6186724643128939
sVid
p7467
VCuriosity
p7468
sVsampling_error
p7469
F0.10014115072
sVname
p7470
VCuriosity
p7471
sa(dp7472
Vcategory
p7473
Vneeds
p7474
sVpercentage
p7475
F0.4696150140761603
sVid
p7476
VExcitement
p7477
sVsampling_error
p7478
F0.08990878672
sVname
p7479
VExcitement
p7480
sa(dp7481
Vcategory
p7482
Vneeds
p7483
sVpercentage
p7484
F1.0
sVid
p7485
VHarmony
p7486
sVsampling_error
p7487
F0.08963492672000001
sVname
p7488
VHarmony
p7489
sa(dp7490
Vcategory
p7491
Vneeds
p7492
sVpercentage
p7493
F0.06777460084990275
sVid
p7494
VIdeal
p7495
sVsampling_error
p7496
F0.08218403944
sVname
p7497
VIdeal
p7498
sa(dp7499
Vcategory
p7500
Vneeds
p7501
sVpercentage
p7502
F0.7330223323741194
sVid
p7503
VLiberty
p7504
sVsampling_error
p7505
F0.12200636848
sVname
p7506
VLiberty
p7507
sa(dp7508
Vcategory
p7509
Vneeds
p7510
sVpercentage
p7511
F0.9599834790069581
sVid
p7512
VLove
p7513
sVsampling_error
p7514
F0.08224459344
sVname
p7515
VLove
p7516
sa(dp7517
Vcategory
p7518
Vneeds
p7519
sVpercentage
p7520
F1.0
sVid
p7521
VPracticality
p7522
sVsampling_error
p7523
F0.07291035904000001
sVname
p7524
VPracticality
p7525
sa(dp7526
Vcategory
p7527
Vneeds
p7528
sVpercentage
p7529
F0.06452930998582171
sVid
p7530
VSelf-expression
p7531
sVsampling_error
p7532
F0.07003089112000001
sVname
p7533
VSelf-expression
p7534
sa(dp7535
Vcategory
p7536
Vneeds
p7537
sVpercentage
p7538
F0.419753742216395
sVid
p7539
VStability
p7540
sVsampling_error
p7541
F0.08935564816000001
sVname
p7542
VStability
p7543
sa(dp7544
Vcategory
p7545
Vneeds
p7546
sVpercentage
p7547
F0.07117569579963183
sVid
p7548
VStructure
p7549
sVsampling_error
p7550
F0.06781808968000001
sVname
p7551
VStructure
p7552
sasVid
p7553
VHarmony_parent
p7554
sVname
p7555
VHarmony
p7556
sasVid
p7557
Vneeds
p7558
sVname
p7559
VNeeds
p7560
sa(dp7561
Vchildren
p7562
(lp7563
(dp7564
Vcategory
p7565
Vvalues
p7566
sVpercentage
p7567
F0.024895753689061103
sVchildren
p7568
(lp7569
(dp7570
Vcategory
p7571
Vvalues
p7572
sVpercentage
p7573
F0.024895753689061103
sVid
p7574
VConservation
p7575
sVsampling_error
p7576
F0.06209390456
sVname
p7577
VConservation
p7578
sa(dp7579
Vcategory
p7580
Vvalues
p7581
sVpercentage
p7582
F0.9275600337260846
sVid
p7583
VOpenness to change
p7584
sVsampling_error
p7585
F0.05660132416
sVname
p7586
VOpenness to change
p7587
sa(dp7588
Vcategory
p7589
Vvalues
p7590
sVpercentage
p7591
F0.8043671925248456
sVid
p7592
VHedonism
p7593
sVsampling_error
p7594
F0.1130095048
sVname
p7595
VHedonism
p7596
sa(dp7597
Vcategory
p7598
Vvalues
p7599
sVpercentage
p7600
F0.2223819222067136
sVid
p7601
VSelf-enhancement
p7602
sVsampling_error
p7603
F0.08638462544
sVname
p7604
VSelf-enhancement
p7605
sa(dp7606
Vcategory
p7607
Vvalues
p7608
sVpercentage
p7609
F0.8774067507143515
sVid
p7610
VSelf-transcendence
p7611
sVsampling_error
p7612
F0.06506893112
sVname
p7613
VSelf-transcendence
p7614
sasVid
p7615
VConservation_parent
p7616
sVname
p7617
VConservation
p7618
sasVid
p7619
Vvalues
p7620
sVname
p7621
VValues
p7622
sasVid
p7623
Vr
p7624
sVname
p7625
Vroot
p7626
ssVid
p7627
V*UNKNOWN*
p7628
sVword_count
p7629
I7024
sVprocessed_lang
p7630
Ven
p7631
sa(dp7632
Vtree
p7633
(dp7634
Vchildren
p7635
(lp7636
(dp7637
Vchildren
p7638
(lp7639
(dp7640
Vcategory
p7641
Vpersonality
p7642
sVpercentage
p7643
F1.0
sVchildren
p7644
(lp7645
(dp7646
Vcategory
p7647
Vpersonality
p7648
sVname
p7649
VOpenness
p7650
sVsampling_error
p7651
F0.0633217951
sVid
p7652
VOpenness
p7653
sVpercentage
p7654
F0.009227529594918538
sVchildren
p7655
(lp7656
(dp7657
Vcategory
p7658
Vpersonality
p7659
sVpercentage
p7660
F0.008875473434054868
sVid
p7661
VAdventurousness
p7662
sVsampling_error
p7663
F0.0531759183
sVname
p7664
VAdventurousness
p7665
sa(dp7666
Vcategory
p7667
Vpersonality
p7668
sVpercentage
p7669
F0.007860995055108273
sVid
p7670
VArtistic interests
p7671
sVsampling_error
p7672
F0.1084359835
sVname
p7673
VArtistic interests
p7674
sa(dp7675
Vcategory
p7676
Vpersonality
p7677
sVpercentage
p7678
F0.9588368345080476
sVid
p7679
VEmotionality
p7680
sVsampling_error
p7681
F0.0497206822
sVname
p7682
VEmotionality
p7683
sa(dp7684
Vcategory
p7685
Vpersonality
p7686
sVpercentage
p7687
F0.009281158167082115
sVid
p7688
VImagination
p7689
sVsampling_error
p7690
F0.06724819630000001
sVname
p7691
VImagination
p7692
sa(dp7693
Vcategory
p7694
Vpersonality
p7695
sVpercentage
p7696
F0.017977723644452253
sVid
p7697
VIntellect
p7698
sVsampling_error
p7699
F0.0589125529
sVname
p7700
VIntellect
p7701
sa(dp7702
Vcategory
p7703
Vpersonality
p7704
sVpercentage
p7705
F0.07201330462338996
sVid
p7706
VLiberalism
p7707
sVsampling_error
p7708
F0.0869630483
sVname
p7709
VAuthority-challenging
p7710
sasa(dp7711
Vcategory
p7712
Vpersonality
p7713
sVname
p7714
VConscientiousness
p7715
sVsampling_error
p7716
F0.0795046494
sVid
p7717
VConscientiousness
p7718
sVpercentage
p7719
F0.008259719400506514
sVchildren
p7720
(lp7721
(dp7722
Vcategory
p7723
Vpersonality
p7724
sVpercentage
p7725
F0.009818179196766487
sVid
p7726
VAchievement striving
p7727
sVsampling_error
p7728
F0.1027441506
sVname
p7729
VAchievement striving
p7730
sa(dp7731
Vcategory
p7732
Vpersonality
p7733
sVpercentage
p7734
F0.018545536165304764
sVid
p7735
VCautiousness
p7736
sVsampling_error
p7737
F0.0950964582
sVname
p7738
VCautiousness
p7739
sa(dp7740
Vcategory
p7741
Vpersonality
p7742
sVpercentage
p7743
F0.027859569925578864
sVid
p7744
VDutifulness
p7745
sVsampling_error
p7746
F0.0634072524
sVname
p7747
VDutifulness
p7748
sa(dp7749
Vcategory
p7750
Vpersonality
p7751
sVpercentage
p7752
F1.0
sVid
p7753
VOrderliness
p7754
sVsampling_error
p7755
F0.0730417055
sVname
p7756
VOrderliness
p7757
sa(dp7758
Vcategory
p7759
Vpersonality
p7760
sVpercentage
p7761
F0.008354980248258837
sVid
p7762
VSelf-discipline
p7763
sVsampling_error
p7764
F0.0485342754
sVname
p7765
VSelf-discipline
p7766
sa(dp7767
Vcategory
p7768
Vpersonality
p7769
sVpercentage
p7770
F0.009067813239286633
sVid
p7771
VSelf-efficacy
p7772
sVsampling_error
p7773
F0.0960651548
sVname
p7774
VSelf-efficacy
p7775
sasa(dp7776
Vcategory
p7777
Vpersonality
p7778
sVname
p7779
VExtraversion
p7780
sVsampling_error
p7781
F0.0593594041
sVid
p7782
VExtraversion
p7783
sVpercentage
p7784
F0.9254223711540154
sVchildren
p7785
(lp7786
(dp7787
Vcategory
p7788
Vpersonality
p7789
sVpercentage
p7790
F0.336288054019411
sVid
p7791
VActivity level
p7792
sVsampling_error
p7793
F0.0810916123
sVname
p7794
VActivity level
p7795
sa(dp7796
Vcategory
p7797
Vpersonality
p7798
sVpercentage
p7799
F1.0
sVid
p7800
VAssertiveness
p7801
sVsampling_error
p7802
F0.0866323997
sVname
p7803
VAssertiveness
p7804
sa(dp7805
Vcategory
p7806
Vpersonality
p7807
sVpercentage
p7808
F0.8198653873981107
sVid
p7809
VCheerfulness
p7810
sVsampling_error
p7811
F0.1089920717
sVname
p7812
VCheerfulness
p7813
sa(dp7814
Vcategory
p7815
Vpersonality
p7816
sVpercentage
p7817
F0.9879633448858779
sVid
p7818
VExcitement-seeking
p7819
sVsampling_error
p7820
F0.0834258648
sVname
p7821
VExcitement-seeking
p7822
sa(dp7823
Vcategory
p7824
Vpersonality
p7825
sVpercentage
p7826
F0.4831475356091379
sVid
p7827
VFriendliness
p7828
sVsampling_error
p7829
F0.0783944322
sVname
p7830
VOutgoing
p7831
sa(dp7832
Vcategory
p7833
Vpersonality
p7834
sVpercentage
p7835
F0.9042975620600492
sVid
p7836
VGregariousness
p7837
sVsampling_error
p7838
F0.0595825206
sVname
p7839
VGregariousness
p7840
sasa(dp7841
Vcategory
p7842
Vpersonality
p7843
sVname
p7844
VAgreeableness
p7845
sVsampling_error
p7846
F0.100403531
sVid
p7847
VAgreeableness
p7848
sVpercentage
p7849
F0.8663342920631518
sVchildren
p7850
(lp7851
(dp7852
Vcategory
p7853
Vpersonality
p7854
sVpercentage
p7855
F0.09190334613885888
sVid
p7856
VAltruism
p7857
sVsampling_error
p7858
F0.0735380682
sVname
p7859
VAltruism
p7860
sa(dp7861
Vcategory
p7862
Vpersonality
p7863
sVpercentage
p7864
F0.03552860007870091
sVid
p7865
VCooperation
p7866
sVsampling_error
p7867
F0.0826418733
sVname
p7868
VCooperation
p7869
sa(dp7870
Vcategory
p7871
Vpersonality
p7872
sVpercentage
p7873
F0.7234134801165735
sVid
p7874
VModesty
p7875
sVsampling_error
p7876
F0.058570141699999995
sVname
p7877
VModesty
p7878
sa(dp7879
Vcategory
p7880
Vpersonality
p7881
sVpercentage
p7882
F0.7065756783033336
sVid
p7883
VMorality
p7884
sVsampling_error
p7885
F0.0656148409
sVname
p7886
VUncompromising
p7887
sa(dp7888
Vcategory
p7889
Vpersonality
p7890
sVpercentage
p7891
F0.7203630334555332
sVid
p7892
VSympathy
p7893
sVsampling_error
p7894
F0.10132235939999999
sVname
p7895
VSympathy
p7896
sa(dp7897
Vcategory
p7898
Vpersonality
p7899
sVpercentage
p7900
F0.0833350536647415
sVid
p7901
VTrust
p7902
sVsampling_error
p7903
F0.0591558836
sVname
p7904
VTrust
p7905
sasa(dp7906
Vcategory
p7907
Vpersonality
p7908
sVname
p7909
VEmotional range
p7910
sVsampling_error
p7911
F0.09478514499999999
sVid
p7912
VNeuroticism
p7913
sVpercentage
p7914
F1.0
sVchildren
p7915
(lp7916
(dp7917
Vcategory
p7918
Vpersonality
p7919
sVpercentage
p7920
F1.0
sVid
p7921
VAnger
p7922
sVsampling_error
p7923
F0.0976486081
sVname
p7924
VFiery
p7925
sa(dp7926
Vcategory
p7927
Vpersonality
p7928
sVpercentage
p7929
F1.0
sVid
p7930
VAnxiety
p7931
sVsampling_error
p7932
F0.0575070259
sVname
p7933
VProne to worry
p7934
sa(dp7935
Vcategory
p7936
Vpersonality
p7937
sVpercentage
p7938
F1.0
sVid
p7939
VDepression
p7940
sVsampling_error
p7941
F0.061643691199999996
sVname
p7942
VMelancholy
p7943
sa(dp7944
Vcategory
p7945
Vpersonality
p7946
sVpercentage
p7947
F0.9880717361808038
sVid
p7948
VImmoderation
p7949
sVsampling_error
p7950
F0.0550607563
sVname
p7951
VImmoderation
p7952
sa(dp7953
Vcategory
p7954
Vpersonality
p7955
sVpercentage
p7956
F0.9823368761755737
sVid
p7957
VSelf-consciousness
p7958
sVsampling_error
p7959
F0.059400557900000005
sVname
p7960
VSelf-consciousness
p7961
sa(dp7962
Vcategory
p7963
Vpersonality
p7964
sVpercentage
p7965
F1.0
sVid
p7966
VVulnerability
p7967
sVsampling_error
p7968
F0.0887966798
sVname
p7969
VSusceptible to stress
p7970
sasasVid
p7971
VNeuroticism_parent
p7972
sVname
p7973
VEmotional range
p7974
sasVid
p7975
Vpersonality
p7976
sVname
p7977
VBig 5
p7978
sa(dp7979
Vchildren
p7980
(lp7981
(dp7982
Vcategory
p7983
Vneeds
p7984
sVpercentage
p7985
F1.0
sVchildren
p7986
(lp7987
(dp7988
Vcategory
p7989
Vneeds
p7990
sVpercentage
p7991
F0.7666676519867416
sVid
p7992
VChallenge
p7993
sVsampling_error
p7994
F0.0862792934
sVname
p7995
VChallenge
p7996
sa(dp7997
Vcategory
p7998
Vneeds
p7999
sVpercentage
p8000
F0.97378425223445
sVid
p8001
VCloseness
p8002
sVsampling_error
p8003
F0.08508404659999999
sVname
p8004
VCloseness
p8005
sa(dp8006
Vcategory
p8007
Vneeds
p8008
sVpercentage
p8009
F0.8986223428395336
sVid
p8010
VCuriosity
p8011
sVsampling_error
p8012
F0.12322819089999999
sVname
p8013
VCuriosity
p8014
sa(dp8015
Vcategory
p8016
Vneeds
p8017
sVpercentage
p8018
F0.957682197535042
sVid
p8019
VExcitement
p8020
sVsampling_error
p8021
F0.1125637094
sVname
p8022
VExcitement
p8023
sa(dp8024
Vcategory
p8025
Vneeds
p8026
sVpercentage
p8027
F1.0
sVid
p8028
VHarmony
p8029
sVsampling_error
p8030
F0.1125571568
sVname
p8031
VHarmony
p8032
sa(dp8033
Vcategory
p8034
Vneeds
p8035
sVpercentage
p8036
F0.8414710020928573
sVid
p8037
VIdeal
p8038
sVsampling_error
p8039
F0.10203875150000001
sVname
p8040
VIdeal
p8041
sa(dp8042
Vcategory
p8043
Vneeds
p8044
sVpercentage
p8045
F0.9608528982161222
sVid
p8046
VLiberty
p8047
sVsampling_error
p8048
F0.14904356489999998
sVname
p8049
VLiberty
p8050
sa(dp8051
Vcategory
p8052
Vneeds
p8053
sVpercentage
p8054
F1.0
sVid
p8055
VLove
p8056
sVsampling_error
p8057
F0.1036131824
sVname
p8058
VLove
p8059
sa(dp8060
Vcategory
p8061
Vneeds
p8062
sVpercentage
p8063
F1.0
sVid
p8064
VPracticality
p8065
sVsampling_error
p8066
F0.0899742416
sVname
p8067
VPracticality
p8068
sa(dp8069
Vcategory
p8070
Vneeds
p8071
sVpercentage
p8072
F0.009195043499263499
sVid
p8073
VSelf-expression
p8074
sVsampling_error
p8075
F0.0836759678
sVname
p8076
VSelf-expression
p8077
sa(dp8078
Vcategory
p8079
Vneeds
p8080
sVpercentage
p8081
F0.866395844436165
sVid
p8082
VStability
p8083
sVsampling_error
p8084
F0.1095422462
sVname
p8085
VStability
p8086
sa(dp8087
Vcategory
p8088
Vneeds
p8089
sVpercentage
p8090
F0.7973771940012967
sVid
p8091
VStructure
p8092
sVsampling_error
p8093
F0.0821763569
sVname
p8094
VStructure
p8095
sasVid
p8096
VHarmony_parent
p8097
sVname
p8098
VHarmony
p8099
sasVid
p8100
Vneeds
p8101
sVname
p8102
VNeeds
p8103
sa(dp8104
Vchildren
p8105
(lp8106
(dp8107
Vcategory
p8108
Vvalues
p8109
sVpercentage
p8110
F0.009401744635475322
sVchildren
p8111
(lp8112
(dp8113
Vcategory
p8114
Vvalues
p8115
sVpercentage
p8116
F0.009401744635475322
sVid
p8117
VConservation
p8118
sVsampling_error
p8119
F0.0699634472
sVname
p8120
VConservation
p8121
sa(dp8122
Vcategory
p8123
Vvalues
p8124
sVpercentage
p8125
F0.9664722744767291
sVid
p8126
VOpenness to change
p8127
sVsampling_error
p8128
F0.06606229050000001
sVname
p8129
VOpenness to change
p8130
sa(dp8131
Vcategory
p8132
Vvalues
p8133
sVpercentage
p8134
F0.8075604864925983
sVid
p8135
VHedonism
p8136
sVsampling_error
p8137
F0.14093745859999998
sVname
p8138
VHedonism
p8139
sa(dp8140
Vcategory
p8141
Vvalues
p8142
sVpercentage
p8143
F0.18477529637250095
sVid
p8144
VSelf-enhancement
p8145
sVsampling_error
p8146
F0.1063056095
sVname
p8147
VSelf-enhancement
p8148
sa(dp8149
Vcategory
p8150
Vvalues
p8151
sVpercentage
p8152
F0.9215974679970739
sVid
p8153
VSelf-transcendence
p8154
sVsampling_error
p8155
F0.0846285275
sVname
p8156
VSelf-transcendence
p8157
sasVid
p8158
VConservation_parent
p8159
sVname
p8160
VConservation
p8161
sasVid
p8162
Vvalues
p8163
sVname
p8164
VValues
p8165
sasVid
p8166
Vr
p8167
sVname
p8168
Vroot
p8169
ssVword_count
p8170
I283
sVprocessed_lang
p8171
Ven
p8172
sVsource
p8173
V*UNKNOWN*
p8174
sVword_count_message
p8175
VThere were 283 words in the input. We need a minimum of 3,500, preferably 6,000 or more, to compute statistically significant estimates
p8176
sVid
p8177
V*UNKNOWN*
p8178
saa(lp8179
I3
aI4
aI6
aI8
aI10
aI12
aI14
aI16
aI18
aI20
aI22
aI24
aI25
aI26
aI27
aa.